ARM GAS  C:\Users\ben\AppData\Local\Temp\ccr4AmH7.s 			page 1


   1              		.syntax unified
   2              		.cpu cortex-m0
   3              		.fpu softvfp
   4              		.eabi_attribute 20, 1
   5              		.eabi_attribute 21, 1
   6              		.eabi_attribute 23, 3
   7              		.eabi_attribute 24, 1
   8              		.eabi_attribute 25, 1
   9              		.eabi_attribute 26, 1
  10              		.eabi_attribute 30, 1
  11              		.eabi_attribute 34, 0
  12              		.eabi_attribute 18, 4
  13              		.thumb
  14              		.syntax unified
  15              		.file	"main.c"
  16              		.text
  17              	.Ltext0:
  18              		.cfi_sections	.debug_frame
  19              		.section	.text.main,"ax",%progbits
  20              		.align	2
  21              		.global	main
  22              		.code	16
  23              		.thumb_func
  24              		.type	main, %function
  25              	main:
  26              	.LFB62:
  27              		.file 1 "main.c"
   1:main.c        **** /*******************************************************************************
   2:main.c        **** * File Name: main.c
   3:main.c        **** *
   4:main.c        **** * Version: 1.00
   5:main.c        **** *
   6:main.c        **** * Description:
   7:main.c        **** *  This is the source code for the example project of the RTC_P4 component.
   8:main.c        **** *
   9:main.c        **** ********************************************************************************
  10:main.c        **** * Copyright 2015, Cypress Semiconductor Corporation. All rights reserved.
  11:main.c        **** * This software is owned by Cypress Semiconductor Corporation and is protected
  12:main.c        **** * by and subject to worldwide patent and copyright laws and treaties.
  13:main.c        **** * Therefore, you may use this software only as provided in the license agreement
  14:main.c        **** * accompanying the software package from which you obtained this software.
  15:main.c        **** * CYPRESS AND ITS SUPPLIERS MAKE NO WARRANTY OF ANY KIND, EXPRESS OR IMPLIED,
  16:main.c        **** * WITH REGARD TO THIS SOFTWARE, INCLUDING, BUT NOT LIMITED TO, NONINFRINGEMENT,
  17:main.c        **** * IMPLIED WARRANTIES OF MERCHANTABILITY AND FITNESS FOR A PARTICULAR PURPOSE.
  18:main.c        **** *******************************************************************************/
  19:main.c        **** 
  20:main.c        **** #include <project.h>
  21:main.c        **** #include <stdio.h>
  22:main.c        **** #include <stdbool.h>
  23:main.c        **** #include "MyTime.h"
  24:main.c        **** #include "MyWDT.h"
  25:main.c        **** #include "MyBuild.h"
  26:main.c        **** 
  27:main.c        **** 
  28:main.c        **** 
  29:main.c        **** 
  30:main.c        **** 
ARM GAS  C:\Users\ben\AppData\Local\Temp\ccr4AmH7.s 			page 2


  31:main.c        **** 
  32:main.c        **** 
  33:main.c        **** 
  34:main.c        **** /*******************************************************************************
  35:main.c        **** * Function Name: main
  36:main.c        **** ********************************************************************************
  37:main.c        **** *
  38:main.c        **** * Summary:
  39:main.c        **** *  The main() function.
  40:main.c        **** *
  41:main.c        **** * Parameters:
  42:main.c        **** *  None.
  43:main.c        **** *
  44:main.c        **** * Return:
  45:main.c        **** *  None.
  46:main.c        **** *
  47:main.c        **** *******************************************************************************/
  48:main.c        **** int main()
  49:main.c        **** {
  28              		.loc 1 49 0
  29              		.cfi_startproc
  30              		@ args = 0, pretend = 0, frame = 128
  31              		@ frame_needed = 0, uses_anonymous_args = 0
  32 0000 30B5     		push	{r4, r5, lr}
  33              		.cfi_def_cfa_offset 12
  34              		.cfi_offset 4, -12
  35              		.cfi_offset 5, -8
  36              		.cfi_offset 14, -4
  37 0002 A1B0     		sub	sp, sp, #132
  38              		.cfi_def_cfa_offset 144
  50:main.c        ****     DIO_0_0_Write(false);
  39              		.loc 1 50 0
  40 0004 0020     		movs	r0, #0
  41 0006 FFF7FEFF 		bl	DIO_0_0_Write
  42              	.LVL0:
  51:main.c        ****     DIO_0_3_Write(false);
  43              		.loc 1 51 0
  44 000a 0020     		movs	r0, #0
  45 000c FFF7FEFF 		bl	DIO_0_3_Write
  46              	.LVL1:
  52:main.c        ****     char uartString[0x40] = {' '};
  47              		.loc 1 52 0
  48 0010 10AD     		add	r5, sp, #64
  49 0012 4022     		movs	r2, #64
  50 0014 0021     		movs	r1, #0
  51 0016 2800     		movs	r0, r5
  52 0018 FFF7FEFF 		bl	memset
  53              	.LVL2:
  54 001c 2024     		movs	r4, #32
  55 001e 2C70     		strb	r4, [r5]
  53:main.c        ****     char compileTimeString[0x40] = {' '};
  56              		.loc 1 53 0
  57 0020 4022     		movs	r2, #64
  58 0022 0021     		movs	r1, #0
  59 0024 6846     		mov	r0, sp
  60 0026 FFF7FEFF 		bl	memset
  61              	.LVL3:
ARM GAS  C:\Users\ben\AppData\Local\Temp\ccr4AmH7.s 			page 3


  62 002a 6B46     		mov	r3, sp
  63 002c 1C70     		strb	r4, [r3]
  64              	.LVL4:
  54:main.c        ****     
  55:main.c        ****     uint32 myLoop = 0;
  56:main.c        ****     uint32 myLoopTotal = 200;
  57:main.c        ****     
  58:main.c        ****     if(CySysGetResetReason(CY_SYS_RESET_WDT) == CY_SYS_RESET_WDT){
  65              		.loc 1 58 0
  66 002e 0120     		movs	r0, #1
  67 0030 FFF7FEFF 		bl	CySysGetResetReason
  68              	.LVL5:
  69 0034 0128     		cmp	r0, #1
  70 0036 05D1     		bne	.L2
  59:main.c        ****         UART_PutString("\r\n Device restarted by CY_SYS_RESET_WDT \r\nStoped for forever");
  71              		.loc 1 59 0
  72 0038 4F48     		ldr	r0, .L7
  73 003a FFF7FEFF 		bl	UART_PutString
  74              	.LVL6:
  60:main.c        ****         
  61:main.c        ****         //CySysWdtDisable(CY_SYS_WDT_COUNTER0_MASK);
  62:main.c        ****         getALL_WDT_Values();
  75              		.loc 1 62 0
  76 003e FFF7FEFF 		bl	getALL_WDT_Values
  77              	.LVL7:
  78              	.L3:
  79 0042 FEE7     		b	.L3
  80              	.L2:
  63:main.c        ****         while(1);    
  64:main.c        ****         
  65:main.c        ****     }
  66:main.c        ****     
  67:main.c        ****     /* Start RTC component */
  68:main.c        ****     initRTC();
  81              		.loc 1 68 0
  82 0044 FFF7FEFF 		bl	initRTC
  83              	.LVL8:
  69:main.c        ****     setRTCUpdate();
  84              		.loc 1 69 0
  85 0048 FFF7FEFF 		bl	setRTCUpdate
  86              	.LVL9:
  70:main.c        ****     /* Set Date and Time */
  71:main.c        ****     setTimeOfBuild();
  87              		.loc 1 71 0
  88 004c FFF7FEFF 		bl	setTimeOfBuild
  89              	.LVL10:
  72:main.c        ****     
  73:main.c        ****         /* \x1b[2J\x1b[;H - ANSI ESC sequence for clear screen */
  74:main.c        ****     sprintf(uartString, "\x1b[2J\x1b[;H");
  90              		.loc 1 74 0
  91 0050 10AC     		add	r4, sp, #64
  92 0052 4A4B     		ldr	r3, .L7+4
  93 0054 2200     		movs	r2, r4
  94 0056 03CB     		ldmia	r3!, {r0, r1}
  95 0058 03C2     		stmia	r2!, {r0, r1}
  96 005a 1B78     		ldrb	r3, [r3]
  97 005c 1370     		strb	r3, [r2]
ARM GAS  C:\Users\ben\AppData\Local\Temp\ccr4AmH7.s 			page 4


  75:main.c        ****     UART_PutString(uartString);
  98              		.loc 1 75 0
  99 005e 2000     		movs	r0, r4
 100 0060 FFF7FEFF 		bl	UART_PutString
 101              	.LVL11:
  76:main.c        ****     sprintf(uartString, "\r\n\r\n\r\nRTC_P4_WDT_Example_V1.00.04-Fork1 \r\nCompile Time: ");
 102              		.loc 1 76 0
 103 0064 3922     		movs	r2, #57
 104 0066 4649     		ldr	r1, .L7+8
 105 0068 2000     		movs	r0, r4
 106 006a FFF7FEFF 		bl	memcpy
 107              	.LVL12:
  77:main.c        ****     UART_PutString(uartString);
 108              		.loc 1 77 0
 109 006e 2000     		movs	r0, r4
 110 0070 FFF7FEFF 		bl	UART_PutString
 111              	.LVL13:
  78:main.c        ****     strcpy(compileTimeString,getTimeDateString());
 112              		.loc 1 78 0
 113 0074 FFF7FEFF 		bl	getTimeDateString
 114              	.LVL14:
 115 0078 0100     		movs	r1, r0
 116 007a 6846     		mov	r0, sp
 117 007c FFF7FEFF 		bl	strcpy
 118              	.LVL15:
  79:main.c        ****     UART_PutString(compileTimeString);
 119              		.loc 1 79 0
 120 0080 6846     		mov	r0, sp
 121 0082 FFF7FEFF 		bl	UART_PutString
 122              	.LVL16:
  80:main.c        ****     
  81:main.c        ****     sprintf(uartString, "\r\nInitialization\r\n\r\n");
 123              		.loc 1 81 0
 124 0086 3F49     		ldr	r1, .L7+12
 125 0088 2300     		movs	r3, r4
 126 008a 0A00     		movs	r2, r1
 127 008c 23CA     		ldmia	r2!, {r0, r1, r5}
 128 008e 23C3     		stmia	r3!, {r0, r1, r5}
 129 0090 03CA     		ldmia	r2!, {r0, r1}
 130 0092 03C3     		stmia	r3!, {r0, r1}
 131 0094 1278     		ldrb	r2, [r2]
 132 0096 1A70     		strb	r2, [r3]
  82:main.c        ****     UART_PutString(uartString);
 133              		.loc 1 82 0
 134 0098 2000     		movs	r0, r4
 135 009a FFF7FEFF 		bl	UART_PutString
 136              	.LVL17:
  83:main.c        ****     //Print Processor Info
  84:main.c        ****     printDIEinfo();
 137              		.loc 1 84 0
 138 009e FFF7FEFF 		bl	printDIEinfo
 139              	.LVL18:
  85:main.c        ****     sprintf(uartString, "\r\n\r\n\r\n");
 140              		.loc 1 85 0
 141 00a2 394B     		ldr	r3, .L7+16
 142 00a4 1A68     		ldr	r2, [r3]
 143 00a6 1092     		str	r2, [sp, #64]
ARM GAS  C:\Users\ben\AppData\Local\Temp\ccr4AmH7.s 			page 5


 144 00a8 9A88     		ldrh	r2, [r3, #4]
 145 00aa A280     		strh	r2, [r4, #4]
 146 00ac 9B79     		ldrb	r3, [r3, #6]
 147 00ae A371     		strb	r3, [r4, #6]
  86:main.c        ****     UART_PutString(uartString);
 148              		.loc 1 86 0
 149 00b0 2000     		movs	r0, r4
 150 00b2 FFF7FEFF 		bl	UART_PutString
 151              	.LVL19:
  87:main.c        ****     
  88:main.c        ****     getALL_WDT_Values();
 152              		.loc 1 88 0
 153 00b6 FFF7FEFF 		bl	getALL_WDT_Values
 154              	.LVL20:
  89:main.c        **** 
  90:main.c        **** 
  91:main.c        ****     /* Enable WCO */
  92:main.c        ****     CySysClkWcoStart();
 155              		.loc 1 92 0
 156 00ba FFF7FEFF 		bl	CySysClkWcoStart
 157              	.LVL21:
  93:main.c        ****     
  94:main.c        ****     /* Enable global interrupts */
  95:main.c        ****     CyGlobalIntEnable;
 158              		.loc 1 95 0
 159              		.syntax divided
 160              	@ 95 "main.c" 1
 161 00be 62B6     		CPSIE   i
 162              	@ 0 "" 2
  96:main.c        ****     
  97:main.c        ****     //Enable and Start WDT ISR 
  98:main.c        ****     setAllWDTisr();
 163              		.loc 1 98 0
 164              		.thumb
 165              		.syntax unified
 166 00c0 FFF7FEFF 		bl	setAllWDTisr
 167              	.LVL22:
  99:main.c        ****     
 100:main.c        ****     initWDT0();
 168              		.loc 1 100 0
 169 00c4 FFF7FEFF 		bl	initWDT0
 170              	.LVL23:
 101:main.c        ****     
 102:main.c        ****     getALL_WDT_Values();
 171              		.loc 1 102 0
 172 00c8 FFF7FEFF 		bl	getALL_WDT_Values
 173              	.LVL24:
 103:main.c        **** 
 104:main.c        **** 
 105:main.c        ****     sprintf(uartString, "\r\nEntering Main Loop\r\n\r\n\r\n");
 174              		.loc 1 105 0
 175 00cc 2F49     		ldr	r1, .L7+20
 176 00ce 2300     		movs	r3, r4
 177 00d0 0A00     		movs	r2, r1
 178 00d2 23CA     		ldmia	r2!, {r0, r1, r5}
 179 00d4 23C3     		stmia	r3!, {r0, r1, r5}
 180 00d6 23CA     		ldmia	r2!, {r0, r1, r5}
ARM GAS  C:\Users\ben\AppData\Local\Temp\ccr4AmH7.s 			page 6


 181 00d8 23C3     		stmia	r3!, {r0, r1, r5}
 182 00da 1188     		ldrh	r1, [r2]
 183 00dc 1980     		strh	r1, [r3]
 184 00de 9278     		ldrb	r2, [r2, #2]
 185 00e0 9A70     		strb	r2, [r3, #2]
 106:main.c        ****     UART_PutString(uartString);
 186              		.loc 1 106 0
 187 00e2 2000     		movs	r0, r4
 188 00e4 FFF7FEFF 		bl	UART_PutString
 189              	.LVL25:
 107:main.c        **** 
 108:main.c        ****     DIO_0_0_Write(!(DIO_0_0_Read()));
 190              		.loc 1 108 0
 191 00e8 FFF7FEFF 		bl	DIO_0_0_Read
 192              	.LVL26:
 193 00ec 0300     		movs	r3, r0
 194 00ee 5842     		rsbs	r0, r3, #0
 195 00f0 5841     		adcs	r0, r0, r3
 196 00f2 C0B2     		uxtb	r0, r0
 197 00f4 FFF7FEFF 		bl	DIO_0_0_Write
 198              	.LVL27:
  55:main.c        ****     uint32 myLoopTotal = 200;
 199              		.loc 1 55 0
 200 00f8 0024     		movs	r4, #0
 109:main.c        ****     while(myLoop <= myLoopTotal)
 201              		.loc 1 109 0
 202 00fa 18E0     		b	.L4
 203              	.LVL28:
 204              	.L6:
 110:main.c        ****     {
 111:main.c        ****         
 112:main.c        ****         /* Get Date and Time from RTC */
 113:main.c        ****         UART_PutString(getTimeDateString());
 205              		.loc 1 113 0
 206 00fc FFF7FEFF 		bl	getTimeDateString
 207              	.LVL29:
 208 0100 FFF7FEFF 		bl	UART_PutString
 209              	.LVL30:
 114:main.c        **** 
 115:main.c        **** 
 116:main.c        ****         /*if (alarmFlag == 1u)
 117:main.c        ****         {
 118:main.c        ****             UART_PutString("Alarm ");
 119:main.c        ****             alarmFlag  = 0u;
 120:main.c        ****         }
 121:main.c        ****         else
 122:main.c        ****         {*/
 123:main.c        ****         //    UART_PutString("No-alarm");
 124:main.c        ****         //}
 125:main.c        **** 
 126:main.c        ****         UART_PutString("\r");
 210              		.loc 1 126 0
 211 0104 2248     		ldr	r0, .L7+24
 212 0106 FFF7FEFF 		bl	UART_PutString
 213              	.LVL31:
 127:main.c        **** 
 128:main.c        ****         /* Switch to Sleep Mode */
ARM GAS  C:\Users\ben\AppData\Local\Temp\ccr4AmH7.s 			page 7


 129:main.c        ****         CySysWatchdogFeed(0);
 214              		.loc 1 129 0
 215 010a 0020     		movs	r0, #0
 216 010c FFF7FEFF 		bl	CySysWatchdogFeed
 217              	.LVL32:
 130:main.c        ****         CySysPmDeepSleep();
 218              		.loc 1 130 0
 219 0110 FFF7FEFF 		bl	CySysPmDeepSleep
 220              	.LVL33:
 131:main.c        ****         DIO_0_0_Write(!(DIO_0_0_Read()));
 221              		.loc 1 131 0
 222 0114 FFF7FEFF 		bl	DIO_0_0_Read
 223              	.LVL34:
 224 0118 0300     		movs	r3, r0
 225 011a 5842     		rsbs	r0, r3, #0
 226 011c 5841     		adcs	r0, r0, r3
 227 011e C0B2     		uxtb	r0, r0
 228 0120 FFF7FEFF 		bl	DIO_0_0_Write
 229              	.LVL35:
 132:main.c        ****         if(myLoop == 3){
 230              		.loc 1 132 0
 231 0124 032C     		cmp	r4, #3
 232 0126 01D1     		bne	.L5
 133:main.c        ****             getALL_WDT_Values();
 233              		.loc 1 133 0
 234 0128 FFF7FEFF 		bl	getALL_WDT_Values
 235              	.LVL36:
 236              	.L5:
 134:main.c        ****         }
 135:main.c        ****         myLoop++;
 237              		.loc 1 135 0
 238 012c 0134     		adds	r4, r4, #1
 239              	.LVL37:
 240              	.L4:
 109:main.c        ****     {
 241              		.loc 1 109 0
 242 012e C82C     		cmp	r4, #200
 243 0130 E4D9     		bls	.L6
 136:main.c        ****     }
 137:main.c        ****     sprintf(uartString, "\r\n\r\n\r\nProgram finished running:  %lu .\r\n", myLoop);
 244              		.loc 1 137 0
 245 0132 10AD     		add	r5, sp, #64
 246 0134 2200     		movs	r2, r4
 247 0136 1749     		ldr	r1, .L7+28
 248 0138 2800     		movs	r0, r5
 249 013a FFF7FEFF 		bl	sprintf
 250              	.LVL38:
 138:main.c        ****     UART_PutString(uartString);
 251              		.loc 1 138 0
 252 013e 2800     		movs	r0, r5
 253 0140 FFF7FEFF 		bl	UART_PutString
 254              	.LVL39:
 139:main.c        ****     UART_PutString(compileTimeString);
 255              		.loc 1 139 0
 256 0144 6846     		mov	r0, sp
 257 0146 FFF7FEFF 		bl	UART_PutString
 258              	.LVL40:
ARM GAS  C:\Users\ben\AppData\Local\Temp\ccr4AmH7.s 			page 8


 140:main.c        ****     UART_PutString("_");
 259              		.loc 1 140 0
 260 014a 1348     		ldr	r0, .L7+32
 261 014c FFF7FEFF 		bl	UART_PutString
 262              	.LVL41:
 141:main.c        ****     UART_PutString(getTimeDateString());
 263              		.loc 1 141 0
 264 0150 FFF7FEFF 		bl	getTimeDateString
 265              	.LVL42:
 266 0154 FFF7FEFF 		bl	UART_PutString
 267              	.LVL43:
 142:main.c        ****     sprintf(uartString, "_Consol-LOG\r\n\r\n\r\n");
 268              		.loc 1 142 0
 269 0158 104B     		ldr	r3, .L7+36
 270 015a 2A00     		movs	r2, r5
 271 015c 13CB     		ldmia	r3!, {r0, r1, r4}
 272 015e 13C2     		stmia	r2!, {r0, r1, r4}
 273              	.LVL44:
 274 0160 1900     		movs	r1, r3
 275 0162 1B68     		ldr	r3, [r3]
 276 0164 1360     		str	r3, [r2]
 277 0166 8B88     		ldrh	r3, [r1, #4]
 278 0168 9380     		strh	r3, [r2, #4]
 143:main.c        ****     UART_PutString(uartString);
 279              		.loc 1 143 0
 280 016a 2800     		movs	r0, r5
 281 016c FFF7FEFF 		bl	UART_PutString
 282              	.LVL45:
 144:main.c        **** }
 283              		.loc 1 144 0
 284 0170 0020     		movs	r0, #0
 285 0172 21B0     		add	sp, sp, #132
 286              		@ sp needed
 287 0174 30BD     		pop	{r4, r5, pc}
 288              	.L8:
 289 0176 C046     		.align	2
 290              	.L7:
 291 0178 00000000 		.word	.LC0
 292 017c 40000000 		.word	.LC2
 293 0180 4C000000 		.word	.LC4
 294 0184 88000000 		.word	.LC6
 295 0188 A0000000 		.word	.LC8
 296 018c A8000000 		.word	.LC10
 297 0190 C4000000 		.word	.LC12
 298 0194 C8000000 		.word	.LC14
 299 0198 F4000000 		.word	.LC16
 300 019c F8000000 		.word	.LC18
 301              		.cfi_endproc
 302              	.LFE62:
 303              		.size	main, .-main
 304              		.comm	uniqueUniqueIdInfo,80,4
 305              		.comm	commonUniqueIdInfo,60,4
 306              		.comm	uniqueId,8,4
 307              		.comm	date,4,4
 308              		.comm	time,4,4
 309              		.comm	alarmTimeDate,16,4
 310              		.section	.rodata.str1.4,"aMS",%progbits,1
ARM GAS  C:\Users\ben\AppData\Local\Temp\ccr4AmH7.s 			page 9


 311              		.align	2
 312              	.LC0:
 313 0000 0D0A2044 		.ascii	"\015\012 Device restarted by CY_SYS_RESET_WDT \015\012"
 313      65766963 
 313      65207265 
 313      73746172 
 313      74656420 
 314 002a 53746F70 		.ascii	"Stoped for forever\000"
 314      65642066 
 314      6F722066 
 314      6F726576 
 314      657200
 315 003d 000000   		.space	3
 316              	.LC2:
 317 0040 1B5B324A 		.ascii	"\033[2J\033[;H\000"
 317      1B5B3B48 
 317      00
 318 0049 000000   		.space	3
 319              	.LC4:
 320 004c 0D0A0D0A 		.ascii	"\015\012\015\012\015\012RTC_P4_WDT_Example_V1.00.04"
 320      0D0A5254 
 320      435F5034 
 320      5F574454 
 320      5F457861 
 321 006d 2D466F72 		.ascii	"-Fork1 \015\012Compile Time: \000"
 321      6B31200D 
 321      0A436F6D 
 321      70696C65 
 321      2054696D 
 322 0085 000000   		.space	3
 323              	.LC6:
 324 0088 0D0A496E 		.ascii	"\015\012Initialization\015\012\015\012\000"
 324      69746961 
 324      6C697A61 
 324      74696F6E 
 324      0D0A0D0A 
 325 009d 000000   		.space	3
 326              	.LC8:
 327 00a0 0D0A0D0A 		.ascii	"\015\012\015\012\015\012\000"
 327      0D0A00
 328 00a7 00       		.space	1
 329              	.LC10:
 330 00a8 0D0A456E 		.ascii	"\015\012Entering Main Loop\015\012\015\012\015\012\000"
 330      74657269 
 330      6E67204D 
 330      61696E20 
 330      4C6F6F70 
 331 00c3 00       		.space	1
 332              	.LC12:
 333 00c4 0D00     		.ascii	"\015\000"
 334 00c6 0000     		.space	2
 335              	.LC14:
 336 00c8 0D0A0D0A 		.ascii	"\015\012\015\012\015\012Program finished running:  "
 336      0D0A5072 
 336      6F677261 
 336      6D206669 
 336      6E697368 
ARM GAS  C:\Users\ben\AppData\Local\Temp\ccr4AmH7.s 			page 10


 337 00e9 256C7520 		.ascii	"%lu .\015\012\000"
 337      2E0D0A00 
 338 00f1 000000   		.space	3
 339              	.LC16:
 340 00f4 5F00     		.ascii	"_\000"
 341 00f6 0000     		.space	2
 342              	.LC18:
 343 00f8 5F436F6E 		.ascii	"_Consol-LOG\015\012\015\012\015\012\000"
 343      736F6C2D 
 343      4C4F470D 
 343      0A0D0A0D 
 343      0A00
 344              		.text
 345              	.Letext0:
 346              		.file 2 "Generated_Source\\PSoC4/cytypes.h"
 347              		.file 3 "Generated_Source\\PSoC4/RTC.h"
 348              		.file 4 "MyTime.h"
 349              		.file 5 "MyBuild.h"
 350              		.file 6 "Generated_Source\\PSoC4/DIO_0_0.h"
 351              		.file 7 "Generated_Source\\PSoC4/DIO_0_3.h"
 352              		.file 8 "Generated_Source\\PSoC4/CyLib.h"
 353              		.file 9 "Generated_Source\\PSoC4/UART.h"
 354              		.file 10 "MyWDT.h"
 355              		.file 11 "c:\\program files (x86)\\cypress\\psoc creator\\4.3\\psoc creator\\import\\gnu\\arm\\5.4
 356              		.file 12 "Generated_Source\\PSoC4/CyLFClk.h"
 357              		.file 13 "Generated_Source\\PSoC4/cyPm.h"
 358              		.file 14 "c:\\program files (x86)\\cypress\\psoc creator\\4.3\\psoc creator\\import\\gnu\\arm\\5.4