ARM GAS  C:\Users\ben\AppData\Local\Temp\ccgDM0ga.s 			page 1


   1              		.syntax unified
   2              		.cpu cortex-m0
   3              		.fpu softvfp
   4              		.eabi_attribute 20, 1
   5              		.eabi_attribute 21, 1
   6              		.eabi_attribute 23, 3
   7              		.eabi_attribute 24, 1
   8              		.eabi_attribute 25, 1
   9              		.eabi_attribute 26, 1
  10              		.eabi_attribute 30, 1
  11              		.eabi_attribute 34, 0
  12              		.eabi_attribute 18, 4
  13              		.thumb
  14              		.syntax unified
  15              		.file	"MyTime.c"
  16              		.text
  17              	.Ltext0:
  18              		.cfi_sections	.debug_frame
  19              		.section	.text.AlarmIsrHandler,"ax",%progbits
  20              		.align	2
  21              		.global	AlarmIsrHandler
  22              		.code	16
  23              		.thumb_func
  24              		.type	AlarmIsrHandler, %function
  25              	AlarmIsrHandler:
  26              	.LFB40:
  27              		.file 1 "MyTime.c"
   1:MyTime.c      **** /* ========================================
   2:MyTime.c      ****  *
   3:MyTime.c      ****  * Copyright YOUR COMPANY, THE YEAR
   4:MyTime.c      ****  * All Rights Reserved
   5:MyTime.c      ****  * UNPUBLISHED, LICENSED SOFTWARE.
   6:MyTime.c      ****  *
   7:MyTime.c      ****  * CONFIDENTIAL AND PROPRIETARY INFORMATION
   8:MyTime.c      ****  * WHICH IS THE PROPERTY OF your company.
   9:MyTime.c      ****  *
  10:MyTime.c      ****  * ========================================
  11:MyTime.c      **** */
  12:MyTime.c      **** #include "MyTime.h"
  13:MyTime.c      **** 
  14:MyTime.c      **** void setDefaultTime(){
  15:MyTime.c      ****    
  16:MyTime.c      ****     RTC_SetDateAndTime(TIME_HR_MIN_SEC_Default,DATE_MONTH_DAY_YEAR_Default);
  17:MyTime.c      **** }
  18:MyTime.c      **** void setTimeOfBuild(){
  19:MyTime.c      ****     RTC_SetDateAndTime(TIME_HR_MIN_SEC_BUILD,DATE_MONTH_DAY_YEAR_BUILD);
  20:MyTime.c      **** }
  21:MyTime.c      **** 
  22:MyTime.c      **** void initRTC(){
  23:MyTime.c      ****     RTC_Start();
  24:MyTime.c      **** }
  25:MyTime.c      **** 
  26:MyTime.c      **** void myRTC_Update(){
  27:MyTime.c      ****     RTC_Update();
  28:MyTime.c      **** }
  29:MyTime.c      **** 
  30:MyTime.c      **** void setRTCUpdate(){
ARM GAS  C:\Users\ben\AppData\Local\Temp\ccgDM0ga.s 			page 2


  31:MyTime.c      ****     /* Set RTC time update period */
  32:MyTime.c      ****     //RTC_SetPeriod(1u, TICK_EACH_1_HZ);
  33:MyTime.c      ****     // Default ^^^^^^^^^
  34:MyTime.c      ****     RTC_SetPeriod(32768, 32768);
  35:MyTime.c      **** }
  36:MyTime.c      **** 
  37:MyTime.c      **** char *buildTimeString(){
  38:MyTime.c      ****         /* Get Date and Time from RTC */
  39:MyTime.c      ****     time = RTC_GetTime();
  40:MyTime.c      **** 
  41:MyTime.c      ****     /* \x1b[2J\x1b[;H - ANSI ESC sequence for clear screen */
  42:MyTime.c      **** 
  43:MyTime.c      ****     /* Print Date and Time to UART */
  44:MyTime.c      ****     sprintf(timeBuffer, "%02lu-%02lu-%02lu", RTC_GetHours(time), RTC_GetMinutes(time), RTC_GetSecon
  45:MyTime.c      ****     return timeBuffer;
  46:MyTime.c      **** }
  47:MyTime.c      **** 
  48:MyTime.c      **** char *buildDateString(){
  49:MyTime.c      ****     date = RTC_GetDate();
  50:MyTime.c      ****         //sprintf(dateBuffer, "%02lu/%02lu/%02lu", RTC_GetMonth(date), RTC_GetDay(date), RTC_GetYea
  51:MyTime.c      ****     sprintf(dateBuffer, "%02lu-%02lu-%02lu", RTC_GetYear(date), RTC_GetMonth(date), RTC_GetDay(date
  52:MyTime.c      ****     return dateBuffer;
  53:MyTime.c      **** }
  54:MyTime.c      **** 
  55:MyTime.c      **** char *getTimeDateString(){
  56:MyTime.c      ****     date = RTC_GetDate();
  57:MyTime.c      ****         //sprintf(dateBuffer, "%02lu/%02lu/%02lu", RTC_GetMonth(date), RTC_GetDay(date), RTC_GetYea
  58:MyTime.c      ****     sprintf(timeDateBuffer, "%2s_%2s", buildDateString(), buildTimeString());
  59:MyTime.c      ****     
  60:MyTime.c      ****     /*
  61:MyTime.c      ****     UART_PutString(buildDateString());
  62:MyTime.c      ****     UART_PutString("_");
  63:MyTime.c      ****     UART_PutString(buildTimeString());
  64:MyTime.c      ****     */
  65:MyTime.c      ****     return timeDateBuffer;
  66:MyTime.c      **** }
  67:MyTime.c      **** 
  68:MyTime.c      **** void initDefaultAlarm(){
  69:MyTime.c      ****     
  70:MyTime.c      ****     /* Ignore second mask to call alarm */
  71:MyTime.c      ****     RTC_SetAlarmMask((uint32)~RTC_ALARM_SEC_MASK);
  72:MyTime.c      ****     
  73:MyTime.c      ****     /* Set Alarm Date and Time */
  74:MyTime.c      ****     RTC_SetAlarmDateAndTime(&alarmTimeDate);
  75:MyTime.c      **** 
  76:MyTime.c      ****     /* Set function AlarmIsrHandler to be called when alarm triggers */
  77:MyTime.c      ****     RTC_SetAlarmHandler(AlarmIsrHandler);
  78:MyTime.c      **** }
  79:MyTime.c      **** 
  80:MyTime.c      **** 
  81:MyTime.c      **** /*******************************************************************************
  82:MyTime.c      **** * Function Name: AlarmIsrHandler
  83:MyTime.c      **** ********************************************************************************
  84:MyTime.c      **** * Summary:
  85:MyTime.c      **** *  The interrupt handler for Alarm interrupts. Toggles the LED_WdtInt pin.
  86:MyTime.c      **** *
  87:MyTime.c      **** * Parameters:
ARM GAS  C:\Users\ben\AppData\Local\Temp\ccgDM0ga.s 			page 3


  88:MyTime.c      **** *  None
  89:MyTime.c      **** *
  90:MyTime.c      **** * Return:
  91:MyTime.c      **** *  None
  92:MyTime.c      **** *
  93:MyTime.c      **** *******************************************************************************/
  94:MyTime.c      **** void AlarmIsrHandler(void)
  95:MyTime.c      **** {
  28              		.loc 1 95 0
  29              		.cfi_startproc
  30              		@ args = 0, pretend = 0, frame = 0
  31              		@ frame_needed = 0, uses_anonymous_args = 0
  32 0000 10B5     		push	{r4, lr}
  33              		.cfi_def_cfa_offset 8
  34              		.cfi_offset 4, -8
  35              		.cfi_offset 14, -4
  96:MyTime.c      ****     //alarmFlag = 1u;
  97:MyTime.c      **** 
  98:MyTime.c      ****     /* Toggle pin state */
  99:MyTime.c      ****      //LED_Alarm_Write((uint8)~(LED_Alarm_Read()));
 100:MyTime.c      **** 
 101:MyTime.c      ****     /* Clear interrupts state */
 102:MyTime.c      ****     RTC_ClearAlarmStatus();
  36              		.loc 1 102 0
  37 0002 FFF7FEFF 		bl	RTC_ClearAlarmStatus
  38              	.LVL0:
 103:MyTime.c      **** }
  39              		.loc 1 103 0
  40              		@ sp needed
  41 0006 10BD     		pop	{r4, pc}
  42              		.cfi_endproc
  43              	.LFE40:
  44              		.size	AlarmIsrHandler, .-AlarmIsrHandler
  45              		.section	.text.setDefaultTime,"ax",%progbits
  46              		.align	2
  47              		.global	setDefaultTime
  48              		.code	16
  49              		.thumb_func
  50              		.type	setDefaultTime, %function
  51              	setDefaultTime:
  52              	.LFB31:
  14:MyTime.c      ****    
  53              		.loc 1 14 0
  54              		.cfi_startproc
  55              		@ args = 0, pretend = 0, frame = 0
  56              		@ frame_needed = 0, uses_anonymous_args = 0
  57 0000 10B5     		push	{r4, lr}
  58              		.cfi_def_cfa_offset 8
  59              		.cfi_offset 4, -8
  60              		.cfi_offset 14, -4
  16:MyTime.c      **** }
  61              		.loc 1 16 0
  62 0002 0249     		ldr	r1, .L3
  63 0004 0248     		ldr	r0, .L3+4
  64 0006 FFF7FEFF 		bl	RTC_SetDateAndTime
  65              	.LVL1:
  17:MyTime.c      **** void setTimeOfBuild(){
ARM GAS  C:\Users\ben\AppData\Local\Temp\ccgDM0ga.s 			page 4


  66              		.loc 1 17 0
  67              		@ sp needed
  68 000a 10BD     		pop	{r4, pc}
  69              	.L4:
  70              		.align	2
  71              	.L3:
  72 000c 2B200000 		.word	8235
  73 0010 50590200 		.word	153936
  74              		.cfi_endproc
  75              	.LFE31:
  76              		.size	setDefaultTime, .-setDefaultTime
  77              		.section	.text.setTimeOfBuild,"ax",%progbits
  78              		.align	2
  79              		.global	setTimeOfBuild
  80              		.code	16
  81              		.thumb_func
  82              		.type	setTimeOfBuild, %function
  83              	setTimeOfBuild:
  84              	.LFB32:
  18:MyTime.c      ****     RTC_SetDateAndTime(TIME_HR_MIN_SEC_BUILD,DATE_MONTH_DAY_YEAR_BUILD);
  85              		.loc 1 18 0
  86              		.cfi_startproc
  87              		@ args = 0, pretend = 0, frame = 0
  88              		@ frame_needed = 0, uses_anonymous_args = 0
  89 0000 10B5     		push	{r4, lr}
  90              		.cfi_def_cfa_offset 8
  91              		.cfi_offset 4, -8
  92              		.cfi_offset 14, -4
  19:MyTime.c      **** }
  93              		.loc 1 19 0
  94 0002 0249     		ldr	r1, .L6
  95 0004 0248     		ldr	r0, .L6+4
  96 0006 FFF7FEFF 		bl	RTC_SetDateAndTime
  97              	.LVL2:
  20:MyTime.c      **** 
  98              		.loc 1 20 0
  99              		@ sp needed
 100 000a 10BD     		pop	{r4, pc}
 101              	.L7:
 102              		.align	2
 103              	.L6:
 104 000c 2020270A 		.word	170336288
 105 0010 59140900 		.word	595033
 106              		.cfi_endproc
 107              	.LFE32:
 108              		.size	setTimeOfBuild, .-setTimeOfBuild
 109              		.section	.text.initRTC,"ax",%progbits
 110              		.align	2
 111              		.global	initRTC
 112              		.code	16
 113              		.thumb_func
 114              		.type	initRTC, %function
 115              	initRTC:
 116              	.LFB33:
  22:MyTime.c      ****     RTC_Start();
 117              		.loc 1 22 0
 118              		.cfi_startproc
ARM GAS  C:\Users\ben\AppData\Local\Temp\ccgDM0ga.s 			page 5


 119              		@ args = 0, pretend = 0, frame = 0
 120              		@ frame_needed = 0, uses_anonymous_args = 0
 121 0000 10B5     		push	{r4, lr}
 122              		.cfi_def_cfa_offset 8
 123              		.cfi_offset 4, -8
 124              		.cfi_offset 14, -4
  23:MyTime.c      **** }
 125              		.loc 1 23 0
 126 0002 FFF7FEFF 		bl	RTC_Start
 127              	.LVL3:
  24:MyTime.c      **** 
 128              		.loc 1 24 0
 129              		@ sp needed
 130 0006 10BD     		pop	{r4, pc}
 131              		.cfi_endproc
 132              	.LFE33:
 133              		.size	initRTC, .-initRTC
 134              		.section	.text.myRTC_Update,"ax",%progbits
 135              		.align	2
 136              		.global	myRTC_Update
 137              		.code	16
 138              		.thumb_func
 139              		.type	myRTC_Update, %function
 140              	myRTC_Update:
 141              	.LFB34:
  26:MyTime.c      ****     RTC_Update();
 142              		.loc 1 26 0
 143              		.cfi_startproc
 144              		@ args = 0, pretend = 0, frame = 0
 145              		@ frame_needed = 0, uses_anonymous_args = 0
 146 0000 10B5     		push	{r4, lr}
 147              		.cfi_def_cfa_offset 8
 148              		.cfi_offset 4, -8
 149              		.cfi_offset 14, -4
  27:MyTime.c      **** }
 150              		.loc 1 27 0
 151 0002 FFF7FEFF 		bl	RTC_Update
 152              	.LVL4:
  28:MyTime.c      **** 
 153              		.loc 1 28 0
 154              		@ sp needed
 155 0006 10BD     		pop	{r4, pc}
 156              		.cfi_endproc
 157              	.LFE34:
 158              		.size	myRTC_Update, .-myRTC_Update
 159              		.section	.text.setRTCUpdate,"ax",%progbits
 160              		.align	2
 161              		.global	setRTCUpdate
 162              		.code	16
 163              		.thumb_func
 164              		.type	setRTCUpdate, %function
 165              	setRTCUpdate:
 166              	.LFB35:
  30:MyTime.c      ****     /* Set RTC time update period */
 167              		.loc 1 30 0
 168              		.cfi_startproc
 169              		@ args = 0, pretend = 0, frame = 0
ARM GAS  C:\Users\ben\AppData\Local\Temp\ccgDM0ga.s 			page 6


 170              		@ frame_needed = 0, uses_anonymous_args = 0
 171 0000 10B5     		push	{r4, lr}
 172              		.cfi_def_cfa_offset 8
 173              		.cfi_offset 4, -8
 174              		.cfi_offset 14, -4
  34:MyTime.c      **** }
 175              		.loc 1 34 0
 176 0002 8020     		movs	r0, #128
 177 0004 0002     		lsls	r0, r0, #8
 178 0006 0100     		movs	r1, r0
 179 0008 FFF7FEFF 		bl	RTC_SetPeriod
 180              	.LVL5:
  35:MyTime.c      **** 
 181              		.loc 1 35 0
 182              		@ sp needed
 183 000c 10BD     		pop	{r4, pc}
 184              		.cfi_endproc
 185              	.LFE35:
 186              		.size	setRTCUpdate, .-setRTCUpdate
 187 000e C046     		.section	.text.buildTimeString,"ax",%progbits
 188              		.align	2
 189              		.global	buildTimeString
 190              		.code	16
 191              		.thumb_func
 192              		.type	buildTimeString, %function
 193              	buildTimeString:
 194              	.LFB36:
  37:MyTime.c      ****         /* Get Date and Time from RTC */
 195              		.loc 1 37 0
 196              		.cfi_startproc
 197              		@ args = 0, pretend = 0, frame = 0
 198              		@ frame_needed = 0, uses_anonymous_args = 0
 199 0000 70B5     		push	{r4, r5, r6, lr}
 200              		.cfi_def_cfa_offset 16
 201              		.cfi_offset 4, -16
 202              		.cfi_offset 5, -12
 203              		.cfi_offset 6, -8
 204              		.cfi_offset 14, -4
 205 0002 82B0     		sub	sp, sp, #8
 206              		.cfi_def_cfa_offset 24
  39:MyTime.c      **** 
 207              		.loc 1 39 0
 208 0004 FFF7FEFF 		bl	RTC_GetTime
 209              	.LVL6:
 210 0008 124B     		ldr	r3, .L12
 211 000a 1860     		str	r0, [r3]
 212              	.LVL7:
 213              	.LBB14:
 214              	.LBB15:
 215              		.file 2 "Generated_Source\\PSoC4/RTC.h"
   1:Generated_Source\PSoC4/RTC.h **** /***************************************************************************//**
   2:Generated_Source\PSoC4/RTC.h **** * \file Name: RTC.h
   3:Generated_Source\PSoC4/RTC.h **** * \version 1.30
   4:Generated_Source\PSoC4/RTC.h **** *
   5:Generated_Source\PSoC4/RTC.h **** *  This file provides constants and parameter values for the RTC_P4 Component.
   6:Generated_Source\PSoC4/RTC.h **** *
   7:Generated_Source\PSoC4/RTC.h **** ********************************************************************************
ARM GAS  C:\Users\ben\AppData\Local\Temp\ccgDM0ga.s 			page 7


   8:Generated_Source\PSoC4/RTC.h **** * Copyright 2015-2017, Cypress Semiconductor Corporation.  All rights reserved.
   9:Generated_Source\PSoC4/RTC.h **** * You may use this file only in accordance with the license, terms, conditions,
  10:Generated_Source\PSoC4/RTC.h **** * disclaimers, and limitations in the end user license agreement accompanying
  11:Generated_Source\PSoC4/RTC.h **** * the software package with which this file was provided.
  12:Generated_Source\PSoC4/RTC.h **** *******************************************************************************/
  13:Generated_Source\PSoC4/RTC.h **** 
  14:Generated_Source\PSoC4/RTC.h **** #if !defined(CY_RTC_P4_RTC_H)
  15:Generated_Source\PSoC4/RTC.h **** #define CY_RTC_P4_RTC_H
  16:Generated_Source\PSoC4/RTC.h **** 
  17:Generated_Source\PSoC4/RTC.h **** #include <cytypes.h>
  18:Generated_Source\PSoC4/RTC.h **** #include <CyLib.h>
  19:Generated_Source\PSoC4/RTC.h **** 
  20:Generated_Source\PSoC4/RTC.h **** 
  21:Generated_Source\PSoC4/RTC.h **** /*******************************************************************************
  22:Generated_Source\PSoC4/RTC.h **** *    Data types definition
  23:Generated_Source\PSoC4/RTC.h **** *******************************************************************************/
  24:Generated_Source\PSoC4/RTC.h **** /**
  25:Generated_Source\PSoC4/RTC.h **** * \addtogroup group_enums
  26:Generated_Source\PSoC4/RTC.h **** * \{
  27:Generated_Source\PSoC4/RTC.h **** */
  28:Generated_Source\PSoC4/RTC.h **** /** Daylight saving Time format enumeration */
  29:Generated_Source\PSoC4/RTC.h **** typedef enum
  30:Generated_Source\PSoC4/RTC.h **** {
  31:Generated_Source\PSoC4/RTC.h ****     RTC_DST_DATE_RELATIVE = 0u,  /**< Relative DST format */
  32:Generated_Source\PSoC4/RTC.h ****     RTC_DST_DATE_FIXED = 1u      /**< Fixed DST format */
  33:Generated_Source\PSoC4/RTC.h **** }RTC_DST_DATETYPE_ENUM;
  34:Generated_Source\PSoC4/RTC.h **** /** \} group_enums */
  35:Generated_Source\PSoC4/RTC.h **** 
  36:Generated_Source\PSoC4/RTC.h **** /**
  37:Generated_Source\PSoC4/RTC.h **** * \addtogroup group_structures
  38:Generated_Source\PSoC4/RTC.h **** * \{
  39:Generated_Source\PSoC4/RTC.h **** */
  40:Generated_Source\PSoC4/RTC.h **** 
  41:Generated_Source\PSoC4/RTC.h **** /** RTC_DATE_TIME structure is the data structure that is used to 
  42:Generated_Source\PSoC4/RTC.h **** * save the current time and date (RTC_currentTimeDate), and Alarm time and date 
  43:Generated_Source\PSoC4/RTC.h **** *(RTC_alarmCfgTimeDate)
  44:Generated_Source\PSoC4/RTC.h **** *
  45:Generated_Source\PSoC4/RTC.h **** */
  46:Generated_Source\PSoC4/RTC.h **** typedef struct
  47:Generated_Source\PSoC4/RTC.h **** {
  48:Generated_Source\PSoC4/RTC.h ****     uint32 time;        /**< Time in the format used in API*/
  49:Generated_Source\PSoC4/RTC.h ****     uint32 date;        /**< Date in the format used in API*/
  50:Generated_Source\PSoC4/RTC.h ****     uint32 dayOfWeek;   /**< Day of the week, see \ref group_rtc_day_of_the_week */
  51:Generated_Source\PSoC4/RTC.h ****     uint32 status;      /**< RTC status, see \ref group_rtc_status */
  52:Generated_Source\PSoC4/RTC.h **** }RTC_DATE_TIME;
  53:Generated_Source\PSoC4/RTC.h **** 
  54:Generated_Source\PSoC4/RTC.h **** /*
  55:Generated_Source\PSoC4/RTC.h **** * RTC_DST_TIME structure is the data structure that is used to 
  56:Generated_Source\PSoC4/RTC.h **** * save time and date values for Daylight Savings Time Start and Stop 
  57:Generated_Source\PSoC4/RTC.h **** * (RTC_dstTimeDateStart and RTC_dstTimeDateStop)
  58:Generated_Source\PSoC4/RTC.h **** */
  59:Generated_Source\PSoC4/RTC.h **** typedef struct
  60:Generated_Source\PSoC4/RTC.h **** {
  61:Generated_Source\PSoC4/RTC.h ****     uint32 hour;          /**< Hour value */
  62:Generated_Source\PSoC4/RTC.h ****     uint32 dayOfWeek;     /**< Day of the week, see \ref group_rtc_day_of_the_week */
  63:Generated_Source\PSoC4/RTC.h ****     uint32 dayOfMonth;    /**< Day of the month */
  64:Generated_Source\PSoC4/RTC.h ****     uint32 weekOfMonth;   /**< Week of the month, see \ref group_rtc_dst_week_of_month */
ARM GAS  C:\Users\ben\AppData\Local\Temp\ccgDM0ga.s 			page 8


  65:Generated_Source\PSoC4/RTC.h ****     uint32 month;         /**< Month value, see \ref group_rtc_month */
  66:Generated_Source\PSoC4/RTC.h ****     uint8  timeFormat;    /**< The DST operation mode, see \ref 
  67:Generated_Source\PSoC4/RTC.h ****                                RTC_DST_DATETYPE_ENUM */
  68:Generated_Source\PSoC4/RTC.h **** }RTC_DST_TIME;
  69:Generated_Source\PSoC4/RTC.h **** /** \} group_structures */
  70:Generated_Source\PSoC4/RTC.h **** 
  71:Generated_Source\PSoC4/RTC.h **** /*******************************************************************************
  72:Generated_Source\PSoC4/RTC.h **** *    Enumerated Types and Parameters
  73:Generated_Source\PSoC4/RTC.h **** *******************************************************************************/
  74:Generated_Source\PSoC4/RTC.h **** /* Time Format setting constants */
  75:Generated_Source\PSoC4/RTC.h **** #define RTC__HOUR_12 1
  76:Generated_Source\PSoC4/RTC.h **** #define RTC__HOUR_24 0
  77:Generated_Source\PSoC4/RTC.h **** 
  78:Generated_Source\PSoC4/RTC.h **** /*  Date Format setting constants */
  79:Generated_Source\PSoC4/RTC.h **** #define RTC__MM_DD_YYYY 0
  80:Generated_Source\PSoC4/RTC.h **** #define RTC__DD_MM_YYYY 1
  81:Generated_Source\PSoC4/RTC.h **** #define RTC__YYYY_MM_DD 2
  82:Generated_Source\PSoC4/RTC.h **** 
  83:Generated_Source\PSoC4/RTC.h **** /* Date Type setting constants */
  84:Generated_Source\PSoC4/RTC.h **** #define RTC__RELATIVE 0
  85:Generated_Source\PSoC4/RTC.h **** #define RTC__FIXED 1
  86:Generated_Source\PSoC4/RTC.h **** 
  87:Generated_Source\PSoC4/RTC.h **** /* DST Hour setting constants */
  88:Generated_Source\PSoC4/RTC.h **** #define RTC__H0000 0
  89:Generated_Source\PSoC4/RTC.h **** #define RTC__H0100 1
  90:Generated_Source\PSoC4/RTC.h **** #define RTC__H0200 2
  91:Generated_Source\PSoC4/RTC.h **** #define RTC__H0300 3
  92:Generated_Source\PSoC4/RTC.h **** #define RTC__H0400 4
  93:Generated_Source\PSoC4/RTC.h **** #define RTC__H0500 5
  94:Generated_Source\PSoC4/RTC.h **** #define RTC__H0600 6
  95:Generated_Source\PSoC4/RTC.h **** #define RTC__H0700 7
  96:Generated_Source\PSoC4/RTC.h **** #define RTC__H0800 8
  97:Generated_Source\PSoC4/RTC.h **** #define RTC__H0900 9
  98:Generated_Source\PSoC4/RTC.h **** #define RTC__H1000 10
  99:Generated_Source\PSoC4/RTC.h **** #define RTC__H1100 11
 100:Generated_Source\PSoC4/RTC.h **** #define RTC__H1200 12
 101:Generated_Source\PSoC4/RTC.h **** #define RTC__H1300 13
 102:Generated_Source\PSoC4/RTC.h **** #define RTC__H1400 14
 103:Generated_Source\PSoC4/RTC.h **** #define RTC__H1500 15
 104:Generated_Source\PSoC4/RTC.h **** #define RTC__H1600 16
 105:Generated_Source\PSoC4/RTC.h **** #define RTC__H1700 17
 106:Generated_Source\PSoC4/RTC.h **** #define RTC__H1800 18
 107:Generated_Source\PSoC4/RTC.h **** #define RTC__H1900 19
 108:Generated_Source\PSoC4/RTC.h **** #define RTC__H2000 20
 109:Generated_Source\PSoC4/RTC.h **** #define RTC__H2100 21
 110:Generated_Source\PSoC4/RTC.h **** #define RTC__H2200 22
 111:Generated_Source\PSoC4/RTC.h **** #define RTC__H2300 23
 112:Generated_Source\PSoC4/RTC.h **** 
 113:Generated_Source\PSoC4/RTC.h **** /* DST DayOfWeek setting constants */
 114:Generated_Source\PSoC4/RTC.h **** #define RTC__SUNDAY 1
 115:Generated_Source\PSoC4/RTC.h **** #define RTC__MONDAY 2
 116:Generated_Source\PSoC4/RTC.h **** #define RTC__TUESDAY 3
 117:Generated_Source\PSoC4/RTC.h **** #define RTC__WEDNESDAY 4
 118:Generated_Source\PSoC4/RTC.h **** #define RTC__THURSDAY 5
 119:Generated_Source\PSoC4/RTC.h **** #define RTC__FRIDAY 6
 120:Generated_Source\PSoC4/RTC.h **** #define RTC__SATURDAY 7
 121:Generated_Source\PSoC4/RTC.h **** 
ARM GAS  C:\Users\ben\AppData\Local\Temp\ccgDM0ga.s 			page 9


 122:Generated_Source\PSoC4/RTC.h **** /* DST Month setting constants */
 123:Generated_Source\PSoC4/RTC.h **** #define RTC__JAN 1
 124:Generated_Source\PSoC4/RTC.h **** #define RTC__FEB 2
 125:Generated_Source\PSoC4/RTC.h **** #define RTC__MAR 3
 126:Generated_Source\PSoC4/RTC.h **** #define RTC__APR 4
 127:Generated_Source\PSoC4/RTC.h **** #define RTC__MAY 5
 128:Generated_Source\PSoC4/RTC.h **** #define RTC__JUN 6
 129:Generated_Source\PSoC4/RTC.h **** #define RTC__JUL 7
 130:Generated_Source\PSoC4/RTC.h **** #define RTC__AUG 8
 131:Generated_Source\PSoC4/RTC.h **** #define RTC__SEP 9
 132:Generated_Source\PSoC4/RTC.h **** #define RTC__OCT 10
 133:Generated_Source\PSoC4/RTC.h **** #define RTC__NOV 11
 134:Generated_Source\PSoC4/RTC.h **** #define RTC__DEC 12
 135:Generated_Source\PSoC4/RTC.h **** 
 136:Generated_Source\PSoC4/RTC.h **** /* DST WeekOfMonth setting constants */
 137:Generated_Source\PSoC4/RTC.h **** #define RTC__FIRST 1
 138:Generated_Source\PSoC4/RTC.h **** #define RTC__SECOND 2
 139:Generated_Source\PSoC4/RTC.h **** #define RTC__THIRD 3
 140:Generated_Source\PSoC4/RTC.h **** #define RTC__FOURTH 4
 141:Generated_Source\PSoC4/RTC.h **** #define RTC__FIFTH 5
 142:Generated_Source\PSoC4/RTC.h **** #define RTC__LAST 6
 143:Generated_Source\PSoC4/RTC.h **** 
 144:Generated_Source\PSoC4/RTC.h **** 
 145:Generated_Source\PSoC4/RTC.h **** #define RTC_INITIAL_DATA_FORMAT     (0u)
 146:Generated_Source\PSoC4/RTC.h **** #define RTC_INITIAL_TIME_FORMAT     (0u)
 147:Generated_Source\PSoC4/RTC.h **** #define RTC_INITIAL_UPDATE_MODE     (0u)
 148:Generated_Source\PSoC4/RTC.h **** #define RTC_INITIAL_SECOND          (41u)
 149:Generated_Source\PSoC4/RTC.h **** #define RTC_INITIAL_MINUTE          (18u)
 150:Generated_Source\PSoC4/RTC.h **** #define RTC_INITIAL_HOUR            (5u)
 151:Generated_Source\PSoC4/RTC.h **** #define RTC_INITIAL_DAY             (27u)
 152:Generated_Source\PSoC4/RTC.h **** #define RTC_INITIAL_MONTH           (10u)
 153:Generated_Source\PSoC4/RTC.h **** #define RTC_INITIAL_YEAR            (2020u)
 154:Generated_Source\PSoC4/RTC.h **** 
 155:Generated_Source\PSoC4/RTC.h **** #define RTC_INITIAL_ALARM_STATUS    (1u)
 156:Generated_Source\PSoC4/RTC.h **** 
 157:Generated_Source\PSoC4/RTC.h **** #define RTC_INITIAL_DST_STATUS      (0u)
 158:Generated_Source\PSoC4/RTC.h **** #define RTC_INITIAL_DST_DATE_TYPE   (0u)
 159:Generated_Source\PSoC4/RTC.h **** #define RTC_INITIAL_DST_START_MONTH (3uL)
 160:Generated_Source\PSoC4/RTC.h **** #define RTC_INITIAL_DST_START_WOM   (6uL)
 161:Generated_Source\PSoC4/RTC.h **** #define RTC_INITIAL_DST_START_DOM   (22uL)
 162:Generated_Source\PSoC4/RTC.h **** #define RTC_INITIAL_DST_START_DOW   (1uL)
 163:Generated_Source\PSoC4/RTC.h **** #define RTC_INITIAL_DST_START_HRS   (0uL)
 164:Generated_Source\PSoC4/RTC.h **** #define RTC_INITIAL_DST_STOP_MONTH  (10uL)
 165:Generated_Source\PSoC4/RTC.h **** #define RTC_INITIAL_DST_STOP_DOM    (22uL)
 166:Generated_Source\PSoC4/RTC.h **** #define RTC_INITIAL_DST_STOP_DOW    (1uL)
 167:Generated_Source\PSoC4/RTC.h **** #define RTC_INITIAL_DST_STOP_WOM    (6uL)
 168:Generated_Source\PSoC4/RTC.h **** #define RTC_INITIAL_DST_STOP_HRS    (0uL)
 169:Generated_Source\PSoC4/RTC.h **** 
 170:Generated_Source\PSoC4/RTC.h **** /**
 171:Generated_Source\PSoC4/RTC.h **** * \addtogroup group_constants
 172:Generated_Source\PSoC4/RTC.h **** * \{
 173:Generated_Source\PSoC4/RTC.h **** */
 174:Generated_Source\PSoC4/RTC.h **** 
 175:Generated_Source\PSoC4/RTC.h **** /**
 176:Generated_Source\PSoC4/RTC.h **** * \defgroup group_rtc_day_of_the_week Day of the week definitions
 177:Generated_Source\PSoC4/RTC.h **** * \{
 178:Generated_Source\PSoC4/RTC.h **** * Definitions of days in the week
ARM GAS  C:\Users\ben\AppData\Local\Temp\ccgDM0ga.s 			page 10


 179:Generated_Source\PSoC4/RTC.h **** */
 180:Generated_Source\PSoC4/RTC.h **** #define RTC_SUNDAY     (RTC__SUNDAY)       /**< Sequential number of Sunday in the week */
 181:Generated_Source\PSoC4/RTC.h **** #define RTC_MONDAY     (RTC__MONDAY)       /**< Sequential number of Monday in the week */
 182:Generated_Source\PSoC4/RTC.h **** #define RTC_TUESDAY    (RTC__TUESDAY)      /**< Sequential number of Tuesday in the week */
 183:Generated_Source\PSoC4/RTC.h **** #define RTC_WEDNESDAY  (RTC__WEDNESDAY)    /**< Sequential number of Wednesday in the week */
 184:Generated_Source\PSoC4/RTC.h **** #define RTC_THURSDAY   (RTC__THURSDAY)     /**< Sequential number of Thursday in the week */
 185:Generated_Source\PSoC4/RTC.h **** #define RTC_FRIDAY     (RTC__FRIDAY)       /**< Sequential number of Friday in the week */
 186:Generated_Source\PSoC4/RTC.h **** #define RTC_SATURDAY   (RTC__SATURDAY)     /**< Sequential number of Saturday in the week */
 187:Generated_Source\PSoC4/RTC.h **** /** \} group_rtc_day_of_the_week */
 188:Generated_Source\PSoC4/RTC.h **** 
 189:Generated_Source\PSoC4/RTC.h **** /**
 190:Generated_Source\PSoC4/RTC.h **** * \defgroup group_rtc_dst_week_of_month DST Week of month setting constants definitions
 191:Generated_Source\PSoC4/RTC.h **** * \{
 192:Generated_Source\PSoC4/RTC.h **** * Week of month setting constants definitions for Daylight Saving Time feature
 193:Generated_Source\PSoC4/RTC.h **** */
 194:Generated_Source\PSoC4/RTC.h **** #define RTC_FIRST      (RTC__FIRST)   /**< First week in the month */
 195:Generated_Source\PSoC4/RTC.h **** #define RTC_SECOND     (RTC__SECOND)  /**< Second week in the month  */
 196:Generated_Source\PSoC4/RTC.h **** #define RTC_THIRD      (RTC__THIRD)   /**< Third week in the month  */
 197:Generated_Source\PSoC4/RTC.h **** #define RTC_FOURTH     (RTC__FOURTH)  /**< Fourth week in the month  */
 198:Generated_Source\PSoC4/RTC.h **** #define RTC_FIFTH      (RTC__FIFTH)   /**< Fifth week in the month  */
 199:Generated_Source\PSoC4/RTC.h **** #define RTC_LAST       (RTC__LAST)    /**< Last week in the month  */
 200:Generated_Source\PSoC4/RTC.h **** /** \} group_rtc_dst_week_of_month */
 201:Generated_Source\PSoC4/RTC.h **** 
 202:Generated_Source\PSoC4/RTC.h **** /**
 203:Generated_Source\PSoC4/RTC.h **** * \defgroup group_rtc_month Month definitions
 204:Generated_Source\PSoC4/RTC.h **** * \{
 205:Generated_Source\PSoC4/RTC.h **** * Constants definition for Months
 206:Generated_Source\PSoC4/RTC.h **** */
 207:Generated_Source\PSoC4/RTC.h **** #define RTC_JANUARY    (RTC__JAN)    /**< Sequential number of January in the year */
 208:Generated_Source\PSoC4/RTC.h **** #define RTC_FEBRUARY   (RTC__FEB)    /**< Sequential number of February in the year */
 209:Generated_Source\PSoC4/RTC.h **** #define RTC_MARCH      (RTC__MAR)    /**< Sequential number of March in the year */
 210:Generated_Source\PSoC4/RTC.h **** #define RTC_APRIL      (RTC__APR)    /**< Sequential number of April in the year */
 211:Generated_Source\PSoC4/RTC.h **** #define RTC_MAY        (RTC__MAY)    /**< Sequential number of May in the year */
 212:Generated_Source\PSoC4/RTC.h **** #define RTC_JUNE       (RTC__JUN)    /**< Sequential number of June in the year */
 213:Generated_Source\PSoC4/RTC.h **** #define RTC_JULY       (RTC__JUL)    /**< Sequential number of July in the year */
 214:Generated_Source\PSoC4/RTC.h **** #define RTC_AUGUST     (RTC__AUG)    /**< Sequential number of August in the year */
 215:Generated_Source\PSoC4/RTC.h **** #define RTC_SEPTEMBER  (RTC__SEP)    /**< Sequential number of September in the year */
 216:Generated_Source\PSoC4/RTC.h **** #define RTC_OCTOBER    (RTC__OCT)    /**< Sequential number of October in the year */
 217:Generated_Source\PSoC4/RTC.h **** #define RTC_NOVEMBER   (RTC__NOV)    /**< Sequential number of November in the year */
 218:Generated_Source\PSoC4/RTC.h **** #define RTC_DECEMBER   (RTC__DEC)    /**< Sequential number of December in the year */
 219:Generated_Source\PSoC4/RTC.h **** /** \} group_rtc_month */
 220:Generated_Source\PSoC4/RTC.h **** 
 221:Generated_Source\PSoC4/RTC.h **** /**
 222:Generated_Source\PSoC4/RTC.h **** * \defgroup group_rtc_am_pm AM/PM status definitions
 223:Generated_Source\PSoC4/RTC.h **** * \{
 224:Generated_Source\PSoC4/RTC.h **** * Definitions for 12 hour format for indicating the AM/PM period of day
 225:Generated_Source\PSoC4/RTC.h **** */
 226:Generated_Source\PSoC4/RTC.h **** #define RTC_AM                 (0u)    /**< AM period of day */
 227:Generated_Source\PSoC4/RTC.h **** #define RTC_PM                 (1u)    /**< PM period of day */
 228:Generated_Source\PSoC4/RTC.h **** /** \} group_rtc_am_pm */
 229:Generated_Source\PSoC4/RTC.h **** 
 230:Generated_Source\PSoC4/RTC.h **** /**
 231:Generated_Source\PSoC4/RTC.h **** * \defgroup group_rtc_hour_format Hour format definitions
 232:Generated_Source\PSoC4/RTC.h **** * \{
 233:Generated_Source\PSoC4/RTC.h **** * Definitions for hour format
 234:Generated_Source\PSoC4/RTC.h **** */
 235:Generated_Source\PSoC4/RTC.h **** #define RTC_12_HOURS_FORMAT    (RTC__HOUR_12) /**< The 12 hour (AM/PM) format */
ARM GAS  C:\Users\ben\AppData\Local\Temp\ccgDM0ga.s 			page 11


 236:Generated_Source\PSoC4/RTC.h **** #define RTC_24_HOURS_FORMAT    (RTC__HOUR_24) /**< The 24 hour format */
 237:Generated_Source\PSoC4/RTC.h **** /** \} group_rtc_hour_format */
 238:Generated_Source\PSoC4/RTC.h **** 
 239:Generated_Source\PSoC4/RTC.h **** /**
 240:Generated_Source\PSoC4/RTC.h **** * \defgroup group_rtc_days_in_month Number of days in month definitions
 241:Generated_Source\PSoC4/RTC.h **** * \{
 242:Generated_Source\PSoC4/RTC.h **** * Definition of days in current month
 243:Generated_Source\PSoC4/RTC.h **** */
 244:Generated_Source\PSoC4/RTC.h **** #define RTC_DAYS_IN_JANUARY     (31u)    /**< Number of days in January  */
 245:Generated_Source\PSoC4/RTC.h **** #define RTC_DAYS_IN_FEBRUARY    (28u)    /**< Number of days in February */
 246:Generated_Source\PSoC4/RTC.h **** #define RTC_DAYS_IN_MARCH       (31u)    /**< Number of days in March */
 247:Generated_Source\PSoC4/RTC.h **** #define RTC_DAYS_IN_APRIL       (30u)    /**< Number of days in April */
 248:Generated_Source\PSoC4/RTC.h **** #define RTC_DAYS_IN_MAY         (31u)    /**< Number of days in May */
 249:Generated_Source\PSoC4/RTC.h **** #define RTC_DAYS_IN_JUNE        (30u)    /**< Number of days in June */
 250:Generated_Source\PSoC4/RTC.h **** #define RTC_DAYS_IN_JULY        (31u)    /**< Number of days in July */
 251:Generated_Source\PSoC4/RTC.h **** #define RTC_DAYS_IN_AUGUST      (31u)    /**< Number of days in August */
 252:Generated_Source\PSoC4/RTC.h **** #define RTC_DAYS_IN_SEPTEMBER   (30u)    /**< Number of days in September */
 253:Generated_Source\PSoC4/RTC.h **** #define RTC_DAYS_IN_OCTOBER     (31u)    /**< Number of days in October */
 254:Generated_Source\PSoC4/RTC.h **** #define RTC_DAYS_IN_NOVEMBER    (30u)    /**< Number of days in November */
 255:Generated_Source\PSoC4/RTC.h **** #define RTC_DAYS_IN_DECEMBER    (31u)    /**< Number of days in December */
 256:Generated_Source\PSoC4/RTC.h **** /** \} group_rtc_days_in_month */
 257:Generated_Source\PSoC4/RTC.h **** 
 258:Generated_Source\PSoC4/RTC.h **** /**
 259:Generated_Source\PSoC4/RTC.h **** * \defgroup group_rtc_status Definitions of the RTC status values
 260:Generated_Source\PSoC4/RTC.h **** * \{
 261:Generated_Source\PSoC4/RTC.h **** * Definitions for status software register, which has flags for DST (DST),
 262:Generated_Source\PSoC4/RTC.h **** * Leap Year (LY), AM/PM (AM_PM).
 263:Generated_Source\PSoC4/RTC.h **** */
 264:Generated_Source\PSoC4/RTC.h **** 
 265:Generated_Source\PSoC4/RTC.h **** /** Status of Daylight Saving Time. This bit
 266:Generated_Source\PSoC4/RTC.h **** * goes high when the current time and date match the DST time and date and the 
 267:Generated_Source\PSoC4/RTC.h **** * time is incremented. This bit goes low after the DST interval and the time is 
 268:Generated_Source\PSoC4/RTC.h **** * decremented.
 269:Generated_Source\PSoC4/RTC.h **** */
 270:Generated_Source\PSoC4/RTC.h **** #define RTC_STATUS_DST     (1uL << RTC_STATUS_DST_OFFSET)
 271:Generated_Source\PSoC4/RTC.h **** 
 272:Generated_Source\PSoC4/RTC.h **** /** Status of Leap Year. This bit goes high when the current year is a leap year */
 273:Generated_Source\PSoC4/RTC.h **** #define RTC_STATUS_LY      (1uL << RTC_STATUS_LY_OFFSET)
 274:Generated_Source\PSoC4/RTC.h **** 
 275:Generated_Source\PSoC4/RTC.h **** /** Status of Current Time. This bit is low from midnight to noon and high from 
 276:Generated_Source\PSoC4/RTC.h **** *  noon to midnight. */
 277:Generated_Source\PSoC4/RTC.h **** #define RTC_STATUS_AM_PM   (1uL << RTC_STATUS_AM_PM_OFFSET)
 278:Generated_Source\PSoC4/RTC.h **** /** \} group_rtc_status */
 279:Generated_Source\PSoC4/RTC.h **** 
 280:Generated_Source\PSoC4/RTC.h **** /**
 281:Generated_Source\PSoC4/RTC.h **** * \defgroup group_rtc_alarm_mask Definitions for Alarm Mask software register
 282:Generated_Source\PSoC4/RTC.h **** * \{
 283:Generated_Source\PSoC4/RTC.h **** * Definitions for Alarm Mask software register. These masks allow 
 284:Generated_Source\PSoC4/RTC.h **** * matching the alarm value register with the current value register.
 285:Generated_Source\PSoC4/RTC.h **** */
 286:Generated_Source\PSoC4/RTC.h **** 
 287:Generated_Source\PSoC4/RTC.h **** /** The second alarm mask allows matching the alarm second register with the 
 288:Generated_Source\PSoC4/RTC.h **** *   current second register.
 289:Generated_Source\PSoC4/RTC.h **** */
 290:Generated_Source\PSoC4/RTC.h **** #define RTC_ALARM_SEC_MASK         (0x00000001uL)
 291:Generated_Source\PSoC4/RTC.h **** 
 292:Generated_Source\PSoC4/RTC.h **** /** The minute alarm mask allows matching the alarm minute register with the 
ARM GAS  C:\Users\ben\AppData\Local\Temp\ccgDM0ga.s 			page 12


 293:Generated_Source\PSoC4/RTC.h **** *   current minute register.
 294:Generated_Source\PSoC4/RTC.h **** */
 295:Generated_Source\PSoC4/RTC.h **** #define RTC_ALARM_MIN_MASK         (0x00000002uL)
 296:Generated_Source\PSoC4/RTC.h **** 
 297:Generated_Source\PSoC4/RTC.h **** /** The hour alarm mask allows matching the alarm hour register with the 
 298:Generated_Source\PSoC4/RTC.h **** *   current hour register.
 299:Generated_Source\PSoC4/RTC.h **** */
 300:Generated_Source\PSoC4/RTC.h **** #define RTC_ALARM_HOUR_MASK        (0x00000004uL)
 301:Generated_Source\PSoC4/RTC.h **** 
 302:Generated_Source\PSoC4/RTC.h **** /** The day of the week alarm mask allows matching the alarm hour register with 
 303:Generated_Source\PSoC4/RTC.h **** *   the current day of the week register.
 304:Generated_Source\PSoC4/RTC.h **** */
 305:Generated_Source\PSoC4/RTC.h **** #define RTC_ALARM_DAYOFWEEK_MASK   (0x00000008uL)
 306:Generated_Source\PSoC4/RTC.h **** 
 307:Generated_Source\PSoC4/RTC.h **** /** The day of the Month alarm mask allows matching the alarm hour register with 
 308:Generated_Source\PSoC4/RTC.h **** *   the current day of the Month register.
 309:Generated_Source\PSoC4/RTC.h **** */
 310:Generated_Source\PSoC4/RTC.h **** #define RTC_ALARM_DAYOFMONTH_MASK  (0x00000010uL)
 311:Generated_Source\PSoC4/RTC.h **** 
 312:Generated_Source\PSoC4/RTC.h **** /** The month alarm mask allows matching the alarm hour register with the
 313:Generated_Source\PSoC4/RTC.h **** *   current month register.
 314:Generated_Source\PSoC4/RTC.h **** */
 315:Generated_Source\PSoC4/RTC.h **** #define RTC_ALARM_MONTH_MASK       (0x00000020uL)
 316:Generated_Source\PSoC4/RTC.h **** 
 317:Generated_Source\PSoC4/RTC.h **** /** The year alarm mask allows matching the alarm hour register with the
 318:Generated_Source\PSoC4/RTC.h **** *   current year register.
 319:Generated_Source\PSoC4/RTC.h **** */
 320:Generated_Source\PSoC4/RTC.h **** #define RTC_ALARM_YEAR_MASK        (0x00000040uL)
 321:Generated_Source\PSoC4/RTC.h **** 
 322:Generated_Source\PSoC4/RTC.h **** /** \} group_rtc_alarm_mask */
 323:Generated_Source\PSoC4/RTC.h **** /** \} group_constants */
 324:Generated_Source\PSoC4/RTC.h **** 
 325:Generated_Source\PSoC4/RTC.h **** #define RTC_DAYS_PER_WEEK       (7u)
 326:Generated_Source\PSoC4/RTC.h **** 
 327:Generated_Source\PSoC4/RTC.h **** #define RTC_MONTHS_PER_YEAR     (12uL)
 328:Generated_Source\PSoC4/RTC.h **** 
 329:Generated_Source\PSoC4/RTC.h **** #define RTC_HOURS_PER_DAY       (24uL)
 330:Generated_Source\PSoC4/RTC.h **** #define RTC_HOURS_PER_HALF_DAY  (12uL)
 331:Generated_Source\PSoC4/RTC.h **** 
 332:Generated_Source\PSoC4/RTC.h **** #define RTC_SECONDS_PER_MINUTE  (60uL)
 333:Generated_Source\PSoC4/RTC.h **** #define RTC_SECONDS_PER_HOUR    (3600uL)
 334:Generated_Source\PSoC4/RTC.h **** #define RTC_SECONDS_PER_DAY     (24uL * 3600uL)
 335:Generated_Source\PSoC4/RTC.h **** 
 336:Generated_Source\PSoC4/RTC.h **** #define RTC_SECONDS_PER_LEAP_YEAR    (366uL * 24uL * 3600uL)
 337:Generated_Source\PSoC4/RTC.h **** #define RTC_SECONDS_PER_NONLEAP_YEAR (365uL * 24uL * 3600uL)
 338:Generated_Source\PSoC4/RTC.h **** 
 339:Generated_Source\PSoC4/RTC.h **** #define RTC_UNIX_TIME_PM        ((12uL * 3600uL) + 1uL)
 340:Generated_Source\PSoC4/RTC.h **** 
 341:Generated_Source\PSoC4/RTC.h **** /* Unix time begins in 1970 year */
 342:Generated_Source\PSoC4/RTC.h **** #define RTC_YEAR_0             (1970u)
 343:Generated_Source\PSoC4/RTC.h **** 
 344:Generated_Source\PSoC4/RTC.h **** /* Definition of date register fields */
 345:Generated_Source\PSoC4/RTC.h **** #if(RTC_INITIAL_DATA_FORMAT == RTC__MM_DD_YYYY)
 346:Generated_Source\PSoC4/RTC.h ****     #define RTC_10_MONTH_OFFSET   (28u)
 347:Generated_Source\PSoC4/RTC.h ****     #define RTC_MONTH_OFFSET      (24u)
 348:Generated_Source\PSoC4/RTC.h ****     #define RTC_10_DAY_OFFSET     (20u)
 349:Generated_Source\PSoC4/RTC.h ****     #define RTC_DAY_OFFSET        (16u)
ARM GAS  C:\Users\ben\AppData\Local\Temp\ccgDM0ga.s 			page 13


 350:Generated_Source\PSoC4/RTC.h ****     #define RTC_1000_YEAR_OFFSET  (12u)
 351:Generated_Source\PSoC4/RTC.h ****     #define RTC_100_YEAR_OFFSET   (8u)
 352:Generated_Source\PSoC4/RTC.h ****     #define RTC_10_YEAR_OFFSET    (4u)
 353:Generated_Source\PSoC4/RTC.h ****     #define RTC_YEAR_OFFSET       (0u)
 354:Generated_Source\PSoC4/RTC.h **** #elif(RTC_INITIAL_DATA_FORMAT == RTC__DD_MM_YYYY)
 355:Generated_Source\PSoC4/RTC.h ****     #define RTC_10_MONTH_OFFSET   (20u)
 356:Generated_Source\PSoC4/RTC.h ****     #define RTC_MONTH_OFFSET      (16u)
 357:Generated_Source\PSoC4/RTC.h ****     #define RTC_10_DAY_OFFSET     (28u)
 358:Generated_Source\PSoC4/RTC.h ****     #define RTC_DAY_OFFSET        (24u)
 359:Generated_Source\PSoC4/RTC.h ****     #define RTC_1000_YEAR_OFFSET  (12u)
 360:Generated_Source\PSoC4/RTC.h ****     #define RTC_100_YEAR_OFFSET   (8u)
 361:Generated_Source\PSoC4/RTC.h ****     #define RTC_10_YEAR_OFFSET    (4u)
 362:Generated_Source\PSoC4/RTC.h ****     #define RTC_YEAR_OFFSET       (0u)
 363:Generated_Source\PSoC4/RTC.h **** #else
 364:Generated_Source\PSoC4/RTC.h ****     #define RTC_10_MONTH_OFFSET   (12u)
 365:Generated_Source\PSoC4/RTC.h ****     #define RTC_MONTH_OFFSET      (8u)
 366:Generated_Source\PSoC4/RTC.h ****     #define RTC_10_DAY_OFFSET     (4u)
 367:Generated_Source\PSoC4/RTC.h ****     #define RTC_DAY_OFFSET        (0u)
 368:Generated_Source\PSoC4/RTC.h ****     #define RTC_1000_YEAR_OFFSET  (28u)
 369:Generated_Source\PSoC4/RTC.h ****     #define RTC_100_YEAR_OFFSET   (24u)
 370:Generated_Source\PSoC4/RTC.h ****     #define RTC_10_YEAR_OFFSET    (20u)
 371:Generated_Source\PSoC4/RTC.h ****     #define RTC_YEAR_OFFSET       (16u)
 372:Generated_Source\PSoC4/RTC.h **** #endif /* (RTC_INITIAL_DATA_FORMAT == RTC__MM_DD_YYYY) */
 373:Generated_Source\PSoC4/RTC.h **** 
 374:Generated_Source\PSoC4/RTC.h **** #define RTC_10_MONTH_MASK          (0x00000001uL << RTC_10_MONTH_OFFSET)
 375:Generated_Source\PSoC4/RTC.h **** #define RTC_MONTH_MASK             (0x0000000FuL << RTC_MONTH_OFFSET)
 376:Generated_Source\PSoC4/RTC.h **** #define RTC_10_DAY_MASK            (0x00000003uL << RTC_10_DAY_OFFSET)
 377:Generated_Source\PSoC4/RTC.h **** #define RTC_DAY_MASK               (0x0000000FuL << RTC_DAY_OFFSET)
 378:Generated_Source\PSoC4/RTC.h **** #define RTC_1000_YEAR_MASK         (0x00000003uL << RTC_1000_YEAR_OFFSET)
 379:Generated_Source\PSoC4/RTC.h **** #define RTC_100_YEAR_MASK          (0x0000000FuL << RTC_100_YEAR_OFFSET)
 380:Generated_Source\PSoC4/RTC.h **** #define RTC_10_YEAR_MASK           (0x0000000FuL << RTC_10_YEAR_OFFSET)
 381:Generated_Source\PSoC4/RTC.h **** #define RTC_YEAR_MASK              (0x0000000FuL << RTC_YEAR_OFFSET)
 382:Generated_Source\PSoC4/RTC.h **** 
 383:Generated_Source\PSoC4/RTC.h **** #define  RTC_MONTH_FULL_MASK       (RTC_10_MONTH_MASK  | RTC_MONTH_MASK)
 384:Generated_Source\PSoC4/RTC.h **** #define  RTC_DAY_FULL_MASK         (RTC_10_DAY_MASK    | RTC_DAY_MASK)
 385:Generated_Source\PSoC4/RTC.h **** #define  RTC_YEAR_FULL_MASK        (RTC_1000_YEAR_MASK | RTC_100_YEAR_MASK |\
 386:Generated_Source\PSoC4/RTC.h ****                                                  RTC_10_YEAR_MASK   | RTC_YEAR_MASK)
 387:Generated_Source\PSoC4/RTC.h **** 
 388:Generated_Source\PSoC4/RTC.h **** /* Definition of time register fields */
 389:Generated_Source\PSoC4/RTC.h **** #define RTC_TIME_FORMAT_OFFSET     (23u)
 390:Generated_Source\PSoC4/RTC.h **** #define RTC_PERIOD_OF_DAY_OFFSET   (22u)
 391:Generated_Source\PSoC4/RTC.h **** #define RTC_10_HOURS_OFFSET        (20u)
 392:Generated_Source\PSoC4/RTC.h **** #define RTC_HOURS_OFFSET           (16u)
 393:Generated_Source\PSoC4/RTC.h **** #define RTC_10_MINUTES_OFFSET      (12u)
 394:Generated_Source\PSoC4/RTC.h **** #define RTC_MINUTES_OFFSET         (8u)
 395:Generated_Source\PSoC4/RTC.h **** #define RTC_10_SECONDS_OFFSET      (4u)
 396:Generated_Source\PSoC4/RTC.h **** #define RTC_SECONDS_OFFSET         (0u)
 397:Generated_Source\PSoC4/RTC.h **** 
 398:Generated_Source\PSoC4/RTC.h **** #define RTC_TIME_FORMAT_MASK       (0x00000001uL << RTC_TIME_FORMAT_OFFSET)
 399:Generated_Source\PSoC4/RTC.h **** #define RTC_PERIOD_OF_DAY_MASK     (0x00000001uL << RTC_PERIOD_OF_DAY_OFFSET)
 400:Generated_Source\PSoC4/RTC.h **** #define RTC_10_HOURS_MASK          (0x00000003uL << RTC_10_HOURS_OFFSET)
 401:Generated_Source\PSoC4/RTC.h **** #define RTC_HOURS_MASK             (0x0000000FuL << RTC_HOURS_OFFSET)
 402:Generated_Source\PSoC4/RTC.h **** #define RTC_10_MINUTES_MASK        (0x00000007uL << RTC_10_MINUTES_OFFSET)
 403:Generated_Source\PSoC4/RTC.h **** #define RTC_MINUTES_MASK           (0x0000000FuL << RTC_MINUTES_OFFSET)
 404:Generated_Source\PSoC4/RTC.h **** #define RTC_10_SECONDS_MASK        (0x00000007uL << RTC_10_SECONDS_OFFSET)
 405:Generated_Source\PSoC4/RTC.h **** #define RTC_SECONDS_MASK           (0x0000000FuL << RTC_SECONDS_OFFSET)
 406:Generated_Source\PSoC4/RTC.h **** 
ARM GAS  C:\Users\ben\AppData\Local\Temp\ccgDM0ga.s 			page 14


 407:Generated_Source\PSoC4/RTC.h **** #define RTC_HOURS_FULL_MASK        (RTC_10_HOURS_MASK   | RTC_HOURS_MASK)
 408:Generated_Source\PSoC4/RTC.h **** #define RTC_MINUTES_FULL_MASK      (RTC_10_MINUTES_MASK | RTC_MINUTES_MASK)
 409:Generated_Source\PSoC4/RTC.h **** #define RTC_SECONDS_FULL_MASK      (RTC_10_SECONDS_MASK | RTC_SECONDS_MASK)
 410:Generated_Source\PSoC4/RTC.h **** 
 411:Generated_Source\PSoC4/RTC.h **** #define RTC_STATUS_DST_OFFSET      (1u)
 412:Generated_Source\PSoC4/RTC.h **** #define RTC_STATUS_ALARM_OFFSET    (2u)
 413:Generated_Source\PSoC4/RTC.h **** #define RTC_STATUS_LY_OFFSET       (3u)
 414:Generated_Source\PSoC4/RTC.h **** #define RTC_STATUS_AM_PM_OFFSET    (4u)
 415:Generated_Source\PSoC4/RTC.h **** 
 416:Generated_Source\PSoC4/RTC.h **** /* Number of bits per one BCD digit */
 417:Generated_Source\PSoC4/RTC.h **** #define RTC_BCD_NUMBER_SIZE        (4u)
 418:Generated_Source\PSoC4/RTC.h **** #define RTC_BCD_ONE_DIGIT_MASK     (0x0000000FuL)
 419:Generated_Source\PSoC4/RTC.h **** 
 420:Generated_Source\PSoC4/RTC.h **** 
 421:Generated_Source\PSoC4/RTC.h **** /*******************************************************************************
 422:Generated_Source\PSoC4/RTC.h **** *    External Variables
 423:Generated_Source\PSoC4/RTC.h **** *******************************************************************************/
 424:Generated_Source\PSoC4/RTC.h **** /**
 425:Generated_Source\PSoC4/RTC.h **** * \addtogroup group_globals
 426:Generated_Source\PSoC4/RTC.h **** * \{
 427:Generated_Source\PSoC4/RTC.h **** */
 428:Generated_Source\PSoC4/RTC.h **** 
 429:Generated_Source\PSoC4/RTC.h **** /**
 430:Generated_Source\PSoC4/RTC.h **** * Indicates whether the RTC has been initialized; The variable is initialized to
 431:Generated_Source\PSoC4/RTC.h **** * 0 and set to 1 the first time RTC_Start() is called. This allows the component
 432:Generated_Source\PSoC4/RTC.h **** * to restart without reinitialization after the first call to the RTC_Start() 
 433:Generated_Source\PSoC4/RTC.h **** * routine.
 434:Generated_Source\PSoC4/RTC.h **** */
 435:Generated_Source\PSoC4/RTC.h **** extern uint8  RTC_initVar;
 436:Generated_Source\PSoC4/RTC.h **** 
 437:Generated_Source\PSoC4/RTC.h **** /** The DST start/stop status */
 438:Generated_Source\PSoC4/RTC.h **** extern uint8  RTC_dstStatus;
 439:Generated_Source\PSoC4/RTC.h **** 
 440:Generated_Source\PSoC4/RTC.h **** /**
 441:Generated_Source\PSoC4/RTC.h **** * The uint64 variable represents the standard Unix time (number of seconds 
 442:Generated_Source\PSoC4/RTC.h **** * elapsed from January 1, 1970 00:00 hours UTC) in 64-bit 
 443:Generated_Source\PSoC4/RTC.h **** */
 444:Generated_Source\PSoC4/RTC.h **** extern volatile uint64 RTC_unixTime;
 445:Generated_Source\PSoC4/RTC.h **** 
 446:Generated_Source\PSoC4/RTC.h **** /** The values for the time and date of the DST start */
 447:Generated_Source\PSoC4/RTC.h **** extern RTC_DST_TIME RTC_dstStartTime;
 448:Generated_Source\PSoC4/RTC.h **** 
 449:Generated_Source\PSoC4/RTC.h **** /** The values for the time and date of the DST stop */
 450:Generated_Source\PSoC4/RTC.h **** extern RTC_DST_TIME RTC_dstStopTime;
 451:Generated_Source\PSoC4/RTC.h **** 
 452:Generated_Source\PSoC4/RTC.h **** /**
 453:Generated_Source\PSoC4/RTC.h **** * The last updated time and date values are stored in this structure (update 
 454:Generated_Source\PSoC4/RTC.h **** * happens in Get time/date APIs)
 455:Generated_Source\PSoC4/RTC.h **** */
 456:Generated_Source\PSoC4/RTC.h **** extern RTC_DATE_TIME RTC_currentTimeDate;
 457:Generated_Source\PSoC4/RTC.h **** 
 458:Generated_Source\PSoC4/RTC.h **** /** The alarm time and date values are stored in this variable */
 459:Generated_Source\PSoC4/RTC.h **** extern RTC_DATE_TIME RTC_alarmCfgTimeDate;
 460:Generated_Source\PSoC4/RTC.h **** 
 461:Generated_Source\PSoC4/RTC.h **** /**
 462:Generated_Source\PSoC4/RTC.h **** * This variable is used to mask alarm events; mask seconds alarm, mask minutes 
 463:Generated_Source\PSoC4/RTC.h **** * alarm, and so on. It will have bit masks for each time item masking that item 
ARM GAS  C:\Users\ben\AppData\Local\Temp\ccgDM0ga.s 			page 15


 464:Generated_Source\PSoC4/RTC.h **** * for alarm generation
 465:Generated_Source\PSoC4/RTC.h **** */
 466:Generated_Source\PSoC4/RTC.h **** extern uint32  RTC_alarmCfgMask;
 467:Generated_Source\PSoC4/RTC.h **** 
 468:Generated_Source\PSoC4/RTC.h **** /**
 469:Generated_Source\PSoC4/RTC.h **** * This variable is used to indicate current active alarm status per time item 
 470:Generated_Source\PSoC4/RTC.h **** * used in the alarm; whether seconds alarm is active, minute's alarm is active, 
 471:Generated_Source\PSoC4/RTC.h **** * and so on. It will have bit masks for each time item (seconds, minutes, hours,
 472:Generated_Source\PSoC4/RTC.h **** * day, and so on) showing the status
 473:Generated_Source\PSoC4/RTC.h **** */
 474:Generated_Source\PSoC4/RTC.h **** extern uint32 RTC_alarmCurStatus;
 475:Generated_Source\PSoC4/RTC.h **** 
 476:Generated_Source\PSoC4/RTC.h **** /** \} group_globals */
 477:Generated_Source\PSoC4/RTC.h **** 
 478:Generated_Source\PSoC4/RTC.h **** extern void (*RTC_alarmCallbackPtr)(void);
 479:Generated_Source\PSoC4/RTC.h **** 
 480:Generated_Source\PSoC4/RTC.h **** extern const uint16 RTC_daysBeforeMonthTbl[RTC_MONTHS_PER_YEAR];
 481:Generated_Source\PSoC4/RTC.h **** extern const uint8  RTC_daysInMonthTbl[RTC_MONTHS_PER_YEAR];
 482:Generated_Source\PSoC4/RTC.h **** 
 483:Generated_Source\PSoC4/RTC.h **** 
 484:Generated_Source\PSoC4/RTC.h **** /*******************************************************************************
 485:Generated_Source\PSoC4/RTC.h **** *    Function Prototypes
 486:Generated_Source\PSoC4/RTC.h **** *******************************************************************************/
 487:Generated_Source\PSoC4/RTC.h **** /**
 488:Generated_Source\PSoC4/RTC.h **** * \addtogroup group_general
 489:Generated_Source\PSoC4/RTC.h **** * \{
 490:Generated_Source\PSoC4/RTC.h **** */
 491:Generated_Source\PSoC4/RTC.h **** void   RTC_Start(void);
 492:Generated_Source\PSoC4/RTC.h **** void   RTC_Stop(void);
 493:Generated_Source\PSoC4/RTC.h **** void   RTC_Init(void);
 494:Generated_Source\PSoC4/RTC.h **** void   RTC_SetUnixTime(uint64 unixTime);
 495:Generated_Source\PSoC4/RTC.h **** uint64 RTC_GetUnixTime(void);
 496:Generated_Source\PSoC4/RTC.h **** void   RTC_SetPeriod(uint32 ticks, uint32 refOneSecTicks);
 497:Generated_Source\PSoC4/RTC.h **** uint32 RTC_GetPeriod(void);
 498:Generated_Source\PSoC4/RTC.h **** uint32 RTC_GetRefOneSec(void);
 499:Generated_Source\PSoC4/RTC.h **** void   RTC_SetDateAndTime(uint32 inputTime, uint32 inputDate);
 500:Generated_Source\PSoC4/RTC.h **** void   RTC_GetDateAndTime(RTC_DATE_TIME* dateTime);
 501:Generated_Source\PSoC4/RTC.h **** uint32 RTC_GetTime(void);
 502:Generated_Source\PSoC4/RTC.h **** uint32 RTC_GetDate(void);
 503:Generated_Source\PSoC4/RTC.h **** void   RTC_SetAlarmDateAndTime(const RTC_DATE_TIME* alarmTime);
 504:Generated_Source\PSoC4/RTC.h **** void   RTC_GetAlarmDateAndTime(RTC_DATE_TIME* alarmTimeDate);
 505:Generated_Source\PSoC4/RTC.h **** void   RTC_SetAlarmMask(uint32 mask);
 506:Generated_Source\PSoC4/RTC.h **** uint32 RTC_GetAlarmMask(void);
 507:Generated_Source\PSoC4/RTC.h **** uint32 RTC_ReadStatus(void);
 508:Generated_Source\PSoC4/RTC.h **** uint32 RTC_GetAlarmStatus(void);
 509:Generated_Source\PSoC4/RTC.h **** void   RTC_ClearAlarmStatus(void);
 510:Generated_Source\PSoC4/RTC.h **** void   RTC_SetDSTStartTime(const RTC_DST_TIME* dstStartTime,
 511:Generated_Source\PSoC4/RTC.h ****                                               RTC_DST_DATETYPE_ENUM type);
 512:Generated_Source\PSoC4/RTC.h **** void   RTC_SetDSTStopTime(const RTC_DST_TIME* dstStopTime,
 513:Generated_Source\PSoC4/RTC.h ****                                              RTC_DST_DATETYPE_ENUM type);
 514:Generated_Source\PSoC4/RTC.h **** uint32 RTC_ConvertBCDToDec(uint32 bcdNum);
 515:Generated_Source\PSoC4/RTC.h **** uint32 RTC_ConvertDecToBCD(uint32 decNum);
 516:Generated_Source\PSoC4/RTC.h **** void   RTC_Update(void);
 517:Generated_Source\PSoC4/RTC.h **** void*  RTC_SetAlarmHandler(void (*CallbackFunction)(void));
 518:Generated_Source\PSoC4/RTC.h **** 
 519:Generated_Source\PSoC4/RTC.h **** static uint32 RTC_ConstructDate(uint32 month, uint32 day, uint32 year);
 520:Generated_Source\PSoC4/RTC.h **** static uint32 RTC_ConstructTime(uint32 timeFormat, uint32 stateAmPm, uint32 hour, uint32 min, uint3
ARM GAS  C:\Users\ben\AppData\Local\Temp\ccgDM0ga.s 			page 16


 521:Generated_Source\PSoC4/RTC.h **** /** \} group_general */
 522:Generated_Source\PSoC4/RTC.h **** 
 523:Generated_Source\PSoC4/RTC.h **** static uint32 RTC_GetTimeFormat(uint32 inputTime);
 524:Generated_Source\PSoC4/RTC.h **** static uint32 RTC_SetTimeFormat(uint32 inputTime, uint32 timeFormat);
 525:Generated_Source\PSoC4/RTC.h **** 
 526:Generated_Source\PSoC4/RTC.h **** /**
 527:Generated_Source\PSoC4/RTC.h **** * \addtogroup group_general
 528:Generated_Source\PSoC4/RTC.h **** * \{
 529:Generated_Source\PSoC4/RTC.h **** */
 530:Generated_Source\PSoC4/RTC.h **** static uint32 RTC_LeapYear(uint32 year);
 531:Generated_Source\PSoC4/RTC.h **** static uint32 RTC_IsBitSet(uint32 var, uint32 mask);
 532:Generated_Source\PSoC4/RTC.h **** static uint32 RTC_GetSecond(uint32 inputTime);
 533:Generated_Source\PSoC4/RTC.h **** static uint32 RTC_GetMinutes(uint32 inputTime);
 534:Generated_Source\PSoC4/RTC.h **** static uint32 RTC_GetHours(uint32 inputTime);
 535:Generated_Source\PSoC4/RTC.h **** static uint32 RTC_GetAmPm(uint32 inputTime);
 536:Generated_Source\PSoC4/RTC.h **** static uint32 RTC_GetDay(uint32 date);
 537:Generated_Source\PSoC4/RTC.h **** static uint32 RTC_GetMonth(uint32 date);
 538:Generated_Source\PSoC4/RTC.h **** static uint32 RTC_GetYear(uint32 date);
 539:Generated_Source\PSoC4/RTC.h **** /** \} group_general */
 540:Generated_Source\PSoC4/RTC.h **** 
 541:Generated_Source\PSoC4/RTC.h **** static uint32 RTC_SetSecond(uint32 inputTime, uint32 inputSecond);
 542:Generated_Source\PSoC4/RTC.h **** static uint32 RTC_SetMinutes(uint32 inputTime, uint32 inputMinute);
 543:Generated_Source\PSoC4/RTC.h **** static uint32 RTC_SetHours(uint32 inputTime, uint32 inputHours);
 544:Generated_Source\PSoC4/RTC.h **** static uint32 RTC_SetAmPm(uint32 inputTime, uint32 periodOfDay);
 545:Generated_Source\PSoC4/RTC.h **** static uint32 RTC_SetDay(uint32 inputDate, uint32 inputDay);
 546:Generated_Source\PSoC4/RTC.h **** static uint32 RTC_SetMonth(uint32 inputDate, uint32 inputMonth);
 547:Generated_Source\PSoC4/RTC.h **** static uint32 RTC_SetYear(uint32 inputDate, uint32 inputYear);
 548:Generated_Source\PSoC4/RTC.h **** 
 549:Generated_Source\PSoC4/RTC.h **** uint64 RTC_ConstructUnixAlarmTime(const RTC_DATE_TIME* alarmTime, uint8 alarmCfgMask);
 550:Generated_Source\PSoC4/RTC.h **** uint64 RTC_GetDstUnixTime(const RTC_DST_TIME* dstTime);
 551:Generated_Source\PSoC4/RTC.h **** uint64 RTC_GetNexAlarmTime(uint64 curUnixTime, uint8 alarmCfgMask);
 552:Generated_Source\PSoC4/RTC.h **** 
 553:Generated_Source\PSoC4/RTC.h **** static uint32 RTC_GetNextMinSec(uint32 curVal);
 554:Generated_Source\PSoC4/RTC.h **** static uint32 RTC_GetNextHour(uint32 curVal);
 555:Generated_Source\PSoC4/RTC.h **** static uint32 RTC_GetNextDay(uint32 curYear, uint32 curMonth, uint32 curDay, uint32 alarmCfgMask);
 556:Generated_Source\PSoC4/RTC.h **** static uint32 RTC_GetNextMonth(uint32 curMonth);
 557:Generated_Source\PSoC4/RTC.h **** static uint32 RTC_GetNextYear(uint32 curYear);
 558:Generated_Source\PSoC4/RTC.h **** static uint32 RTC_GetDayOfWeek(uint32 day, uint32 month, uint32 year);
 559:Generated_Source\PSoC4/RTC.h **** static uint32 RTC_DaysBeforeMonth(uint32 month, uint32 year);
 560:Generated_Source\PSoC4/RTC.h **** 
 561:Generated_Source\PSoC4/RTC.h **** uint32 RTC_DaysInMonth(uint32 month, uint32 year);
 562:Generated_Source\PSoC4/RTC.h **** 
 563:Generated_Source\PSoC4/RTC.h **** /**
 564:Generated_Source\PSoC4/RTC.h **** * \addtogroup group_general
 565:Generated_Source\PSoC4/RTC.h **** * \{
 566:Generated_Source\PSoC4/RTC.h **** */
 567:Generated_Source\PSoC4/RTC.h **** void   RTC_UnixToDateTime(RTC_DATE_TIME* dateTime, uint64 unixTime, uint32 timeFormat);
 568:Generated_Source\PSoC4/RTC.h **** uint64 RTC_DateTimeToUnix(uint32 inputDate, uint32 inputTime);
 569:Generated_Source\PSoC4/RTC.h **** 
 570:Generated_Source\PSoC4/RTC.h **** #if defined(CYDEV_RTC_SOURCE_WDT)
 571:Generated_Source\PSoC4/RTC.h ****     #if((0u != CYDEV_WDT_GENERATE_ISR) && (0u == RTC_INITIAL_UPDATE_MODE))
 572:Generated_Source\PSoC4/RTC.h ****         static void RTC_CySysRtcSetCallback(uint32 wdtNumber);
 573:Generated_Source\PSoC4/RTC.h ****         static void RTC_CySysRtcResetCallback(uint32 wdtNumber);
 574:Generated_Source\PSoC4/RTC.h ****     #endif /* ((0u != CYDEV_WDT_GENERATE_ISR) && (0u == RTC_INITIAL_UPDATE_MODE)) */
 575:Generated_Source\PSoC4/RTC.h **** #endif /* (CYDEV_RTC_SOURCE_WDT) */
 576:Generated_Source\PSoC4/RTC.h **** 
 577:Generated_Source\PSoC4/RTC.h **** /** \} group_general */
ARM GAS  C:\Users\ben\AppData\Local\Temp\ccgDM0ga.s 			page 17


 578:Generated_Source\PSoC4/RTC.h **** 
 579:Generated_Source\PSoC4/RTC.h **** uint32 RTC_RelativeToFixed(uint32 dayOfWeek, uint32 weekOfMonth, uint32 month, uint32 year);
 580:Generated_Source\PSoC4/RTC.h **** 
 581:Generated_Source\PSoC4/RTC.h **** 
 582:Generated_Source\PSoC4/RTC.h **** 
 583:Generated_Source\PSoC4/RTC.h **** /*******************************************************************************
 584:Generated_Source\PSoC4/RTC.h **** * Function Name: RTC_IsBitSet
 585:Generated_Source\PSoC4/RTC.h **** ****************************************************************************//**
 586:Generated_Source\PSoC4/RTC.h **** *
 587:Generated_Source\PSoC4/RTC.h **** * Checks the state of a bit passed through parameter.
 588:Generated_Source\PSoC4/RTC.h **** *
 589:Generated_Source\PSoC4/RTC.h **** * \param var
 590:Generated_Source\PSoC4/RTC.h **** * The variable to be checked.
 591:Generated_Source\PSoC4/RTC.h **** *
 592:Generated_Source\PSoC4/RTC.h **** * \param mask
 593:Generated_Source\PSoC4/RTC.h **** * The mask for a bit to be checked.
 594:Generated_Source\PSoC4/RTC.h **** *
 595:Generated_Source\PSoC4/RTC.h **** * \return
 596:Generated_Source\PSoC4/RTC.h **** *  0u - Bit is not set. <br> 1u - Bit is set.
 597:Generated_Source\PSoC4/RTC.h **** *
 598:Generated_Source\PSoC4/RTC.h **** *******************************************************************************/
 599:Generated_Source\PSoC4/RTC.h **** static CY_INLINE uint32 RTC_IsBitSet(uint32 var, uint32 mask)
 600:Generated_Source\PSoC4/RTC.h **** {
 601:Generated_Source\PSoC4/RTC.h ****     return ((mask == (var & mask)) ? 1Lu : 0Lu);
 602:Generated_Source\PSoC4/RTC.h **** }
 603:Generated_Source\PSoC4/RTC.h **** 
 604:Generated_Source\PSoC4/RTC.h **** 
 605:Generated_Source\PSoC4/RTC.h **** /*******************************************************************************
 606:Generated_Source\PSoC4/RTC.h **** * Function Name: RTC_LeapYear
 607:Generated_Source\PSoC4/RTC.h **** ****************************************************************************//**
 608:Generated_Source\PSoC4/RTC.h **** *
 609:Generated_Source\PSoC4/RTC.h **** * Checks whether the year passed through the parameter is leap or no.
 610:Generated_Source\PSoC4/RTC.h **** *
 611:Generated_Source\PSoC4/RTC.h **** * \param year
 612:Generated_Source\PSoC4/RTC.h **** * The year to be checked.
 613:Generated_Source\PSoC4/RTC.h **** *
 614:Generated_Source\PSoC4/RTC.h **** * \return
 615:Generated_Source\PSoC4/RTC.h **** * 0u - The year is not leap <br> 1u - The year is leap.
 616:Generated_Source\PSoC4/RTC.h **** *
 617:Generated_Source\PSoC4/RTC.h **** *******************************************************************************/
 618:Generated_Source\PSoC4/RTC.h **** static CY_INLINE uint32 RTC_LeapYear(uint32 year)
 619:Generated_Source\PSoC4/RTC.h **** {
 620:Generated_Source\PSoC4/RTC.h ****     uint32 retVal;
 621:Generated_Source\PSoC4/RTC.h **** 
 622:Generated_Source\PSoC4/RTC.h ****     if(((0u == (year % 4Lu)) && (0u != (year % 100Lu))) || (0u == (year % 400Lu)))
 623:Generated_Source\PSoC4/RTC.h ****     {
 624:Generated_Source\PSoC4/RTC.h ****         retVal = 1uL;
 625:Generated_Source\PSoC4/RTC.h ****     }
 626:Generated_Source\PSoC4/RTC.h ****     else
 627:Generated_Source\PSoC4/RTC.h ****     {
 628:Generated_Source\PSoC4/RTC.h ****         retVal = 0uL;
 629:Generated_Source\PSoC4/RTC.h ****     }
 630:Generated_Source\PSoC4/RTC.h **** 
 631:Generated_Source\PSoC4/RTC.h ****     return(retVal);
 632:Generated_Source\PSoC4/RTC.h **** }
 633:Generated_Source\PSoC4/RTC.h **** 
 634:Generated_Source\PSoC4/RTC.h **** 
ARM GAS  C:\Users\ben\AppData\Local\Temp\ccgDM0ga.s 			page 18


 635:Generated_Source\PSoC4/RTC.h **** /*******************************************************************************
 636:Generated_Source\PSoC4/RTC.h **** * Function Name: RTC_GetSecond
 637:Generated_Source\PSoC4/RTC.h **** ****************************************************************************//**
 638:Generated_Source\PSoC4/RTC.h **** *
 639:Generated_Source\PSoC4/RTC.h **** * Returns the seconds value from the time value that is passed as a/the 
 640:Generated_Source\PSoC4/RTC.h **** * parameter.
 641:Generated_Source\PSoC4/RTC.h **** *
 642:Generated_Source\PSoC4/RTC.h **** * \param inputTime
 643:Generated_Source\PSoC4/RTC.h **** * The time value.
 644:Generated_Source\PSoC4/RTC.h **** *
 645:Generated_Source\PSoC4/RTC.h **** * \return
 646:Generated_Source\PSoC4/RTC.h **** * The seconds value.
 647:Generated_Source\PSoC4/RTC.h **** *
 648:Generated_Source\PSoC4/RTC.h **** *******************************************************************************/
 649:Generated_Source\PSoC4/RTC.h **** static CY_INLINE uint32 RTC_GetSecond(uint32 inputTime)
 650:Generated_Source\PSoC4/RTC.h **** {
 651:Generated_Source\PSoC4/RTC.h ****     uint32 retVal;
 652:Generated_Source\PSoC4/RTC.h **** 
 653:Generated_Source\PSoC4/RTC.h ****     retVal  = ((inputTime & RTC_10_SECONDS_MASK) >> RTC_10_SECONDS_OFFSET) * 10u;
 654:Generated_Source\PSoC4/RTC.h ****     retVal += (inputTime & RTC_SECONDS_MASK) >> RTC_SECONDS_OFFSET;
 655:Generated_Source\PSoC4/RTC.h **** 
 656:Generated_Source\PSoC4/RTC.h ****     return (retVal);
 657:Generated_Source\PSoC4/RTC.h **** }
 658:Generated_Source\PSoC4/RTC.h **** 
 659:Generated_Source\PSoC4/RTC.h **** 
 660:Generated_Source\PSoC4/RTC.h **** /*******************************************************************************
 661:Generated_Source\PSoC4/RTC.h **** * Function Name: RTC_GetMinutes
 662:Generated_Source\PSoC4/RTC.h **** ****************************************************************************//**
 663:Generated_Source\PSoC4/RTC.h **** *
 664:Generated_Source\PSoC4/RTC.h **** * Returns the minutes value from the time value that is passed as a/the 
 665:Generated_Source\PSoC4/RTC.h **** * parameter.
 666:Generated_Source\PSoC4/RTC.h **** *
 667:Generated_Source\PSoC4/RTC.h **** * \param inputTime
 668:Generated_Source\PSoC4/RTC.h **** * The time value.
 669:Generated_Source\PSoC4/RTC.h **** *
 670:Generated_Source\PSoC4/RTC.h **** * \return
 671:Generated_Source\PSoC4/RTC.h **** * The minutes value.
 672:Generated_Source\PSoC4/RTC.h **** *
 673:Generated_Source\PSoC4/RTC.h **** *******************************************************************************/
 674:Generated_Source\PSoC4/RTC.h **** static CY_INLINE uint32 RTC_GetMinutes(uint32 inputTime)
 675:Generated_Source\PSoC4/RTC.h **** {
 676:Generated_Source\PSoC4/RTC.h ****     uint32 retVal;
 677:Generated_Source\PSoC4/RTC.h **** 
 678:Generated_Source\PSoC4/RTC.h ****     retVal  = ((inputTime & RTC_10_MINUTES_MASK) >> RTC_10_MINUTES_OFFSET) * 10u;
 679:Generated_Source\PSoC4/RTC.h ****     retVal += (inputTime & RTC_MINUTES_MASK) >> RTC_MINUTES_OFFSET;
 680:Generated_Source\PSoC4/RTC.h **** 
 681:Generated_Source\PSoC4/RTC.h ****     return (retVal);
 682:Generated_Source\PSoC4/RTC.h **** }
 683:Generated_Source\PSoC4/RTC.h **** 
 684:Generated_Source\PSoC4/RTC.h **** 
 685:Generated_Source\PSoC4/RTC.h **** /*******************************************************************************
 686:Generated_Source\PSoC4/RTC.h **** * Function Name: RTC_GetHours
 687:Generated_Source\PSoC4/RTC.h **** ****************************************************************************//**
 688:Generated_Source\PSoC4/RTC.h **** *
 689:Generated_Source\PSoC4/RTC.h **** * Returns the hours value from the time value that is passed as a/the parameter.
 690:Generated_Source\PSoC4/RTC.h **** *
 691:Generated_Source\PSoC4/RTC.h **** * \param inputTime
ARM GAS  C:\Users\ben\AppData\Local\Temp\ccgDM0ga.s 			page 19


 692:Generated_Source\PSoC4/RTC.h **** * The time value.
 693:Generated_Source\PSoC4/RTC.h **** *
 694:Generated_Source\PSoC4/RTC.h **** * \return
 695:Generated_Source\PSoC4/RTC.h **** * The hours value.
 696:Generated_Source\PSoC4/RTC.h **** *
 697:Generated_Source\PSoC4/RTC.h **** *******************************************************************************/
 698:Generated_Source\PSoC4/RTC.h **** static CY_INLINE uint32 RTC_GetHours(uint32 inputTime)
 699:Generated_Source\PSoC4/RTC.h **** {
 700:Generated_Source\PSoC4/RTC.h ****     uint32 retVal;
 701:Generated_Source\PSoC4/RTC.h **** 
 702:Generated_Source\PSoC4/RTC.h ****     retVal  = ((inputTime & RTC_10_HOURS_MASK) >> RTC_10_HOURS_OFFSET) * 10u;
 216              		.loc 2 702 0
 217 000c 030D     		lsrs	r3, r0, #20
 218 000e 0322     		movs	r2, #3
 219 0010 1340     		ands	r3, r2
 220 0012 9A00     		lsls	r2, r3, #2
 221 0014 D318     		adds	r3, r2, r3
 222 0016 5900     		lsls	r1, r3, #1
 223              	.LVL8:
 703:Generated_Source\PSoC4/RTC.h ****     retVal += (inputTime & RTC_HOURS_MASK) >> RTC_HOURS_OFFSET;
 224              		.loc 2 703 0
 225 0018 020C     		lsrs	r2, r0, #16
 226 001a 0F25     		movs	r5, #15
 227 001c 2A40     		ands	r2, r5
 228 001e 8A18     		adds	r2, r1, r2
 229              	.LVL9:
 230              	.LBE15:
 231              	.LBE14:
 232              	.LBB16:
 233              	.LBB17:
 678:Generated_Source\PSoC4/RTC.h ****     retVal += (inputTime & RTC_MINUTES_MASK) >> RTC_MINUTES_OFFSET;
 234              		.loc 2 678 0
 235 0020 040B     		lsrs	r4, r0, #12
 236 0022 0726     		movs	r6, #7
 237 0024 3440     		ands	r4, r6
 238 0026 A300     		lsls	r3, r4, #2
 239 0028 1C19     		adds	r4, r3, r4
 240 002a 6100     		lsls	r1, r4, #1
 241              	.LVL10:
 679:Generated_Source\PSoC4/RTC.h **** 
 242              		.loc 2 679 0
 243 002c 030A     		lsrs	r3, r0, #8
 244 002e 2B40     		ands	r3, r5
 245 0030 CB18     		adds	r3, r1, r3
 246              	.LVL11:
 247              	.LBE17:
 248              	.LBE16:
 249              	.LBB18:
 250              	.LBB19:
 653:Generated_Source\PSoC4/RTC.h ****     retVal += (inputTime & RTC_SECONDS_MASK) >> RTC_SECONDS_OFFSET;
 251              		.loc 2 653 0
 252 0032 0109     		lsrs	r1, r0, #4
 253 0034 3140     		ands	r1, r6
 254 0036 8C00     		lsls	r4, r1, #2
 255 0038 6118     		adds	r1, r4, r1
 256 003a 4C00     		lsls	r4, r1, #1
 257              	.LVL12:
ARM GAS  C:\Users\ben\AppData\Local\Temp\ccgDM0ga.s 			page 20


 654:Generated_Source\PSoC4/RTC.h **** 
 258              		.loc 2 654 0
 259 003c 2840     		ands	r0, r5
 260              	.LVL13:
 261 003e 2018     		adds	r0, r4, r0
 262              	.LVL14:
 263              	.LBE19:
 264              	.LBE18:
  44:MyTime.c      ****     return timeBuffer;
 265              		.loc 1 44 0
 266 0040 054C     		ldr	r4, .L12+4
 267 0042 0090     		str	r0, [sp]
 268 0044 0549     		ldr	r1, .L12+8
 269 0046 2000     		movs	r0, r4
 270 0048 FFF7FEFF 		bl	sprintf
 271              	.LVL15:
  46:MyTime.c      **** 
 272              		.loc 1 46 0
 273 004c 2000     		movs	r0, r4
 274 004e 02B0     		add	sp, sp, #8
 275              		@ sp needed
 276 0050 70BD     		pop	{r4, r5, r6, pc}
 277              	.L13:
 278 0052 C046     		.align	2
 279              	.L12:
 280 0054 00000000 		.word	time
 281 0058 00000000 		.word	.LANCHOR0
 282 005c 00000000 		.word	.LC1
 283              		.cfi_endproc
 284              	.LFE36:
 285              		.size	buildTimeString, .-buildTimeString
 286              		.section	.text.buildDateString,"ax",%progbits
 287              		.align	2
 288              		.global	buildDateString
 289              		.code	16
 290              		.thumb_func
 291              		.type	buildDateString, %function
 292              	buildDateString:
 293              	.LFB37:
  48:MyTime.c      ****     date = RTC_GetDate();
 294              		.loc 1 48 0
 295              		.cfi_startproc
 296              		@ args = 0, pretend = 0, frame = 0
 297              		@ frame_needed = 0, uses_anonymous_args = 0
 298 0000 70B5     		push	{r4, r5, r6, lr}
 299              		.cfi_def_cfa_offset 16
 300              		.cfi_offset 4, -16
 301              		.cfi_offset 5, -12
 302              		.cfi_offset 6, -8
 303              		.cfi_offset 14, -4
 304 0002 82B0     		sub	sp, sp, #8
 305              		.cfi_def_cfa_offset 24
  49:MyTime.c      ****         //sprintf(dateBuffer, "%02lu/%02lu/%02lu", RTC_GetMonth(date), RTC_GetDay(date), RTC_GetYea
 306              		.loc 1 49 0
 307 0004 FFF7FEFF 		bl	RTC_GetDate
 308              	.LVL16:
 309 0008 194B     		ldr	r3, .L15
ARM GAS  C:\Users\ben\AppData\Local\Temp\ccgDM0ga.s 			page 21


 310 000a 1860     		str	r0, [r3]
 311              	.LVL17:
 312              	.LBB20:
 313              	.LBB21:
 704:Generated_Source\PSoC4/RTC.h **** 
 705:Generated_Source\PSoC4/RTC.h ****     return (retVal);
 706:Generated_Source\PSoC4/RTC.h **** }
 707:Generated_Source\PSoC4/RTC.h **** 
 708:Generated_Source\PSoC4/RTC.h **** 
 709:Generated_Source\PSoC4/RTC.h **** /*******************************************************************************
 710:Generated_Source\PSoC4/RTC.h **** * Function Name: RTC_GetAmPm
 711:Generated_Source\PSoC4/RTC.h **** ****************************************************************************//**
 712:Generated_Source\PSoC4/RTC.h **** *
 713:Generated_Source\PSoC4/RTC.h **** * Returns the AM/PM status from the time value that is passed as parameter.
 714:Generated_Source\PSoC4/RTC.h **** *
 715:Generated_Source\PSoC4/RTC.h **** * \param inputTime
 716:Generated_Source\PSoC4/RTC.h **** * The time value.
 717:Generated_Source\PSoC4/RTC.h **** *
 718:Generated_Source\PSoC4/RTC.h **** * \return
 719:Generated_Source\PSoC4/RTC.h **** * The am/pm period of day, see \ref group_rtc_am_pm.
 720:Generated_Source\PSoC4/RTC.h **** *
 721:Generated_Source\PSoC4/RTC.h **** *******************************************************************************/
 722:Generated_Source\PSoC4/RTC.h **** static CY_INLINE uint32 RTC_GetAmPm(uint32 inputTime)
 723:Generated_Source\PSoC4/RTC.h **** {
 724:Generated_Source\PSoC4/RTC.h ****     return (RTC_IsBitSet(inputTime, RTC_PERIOD_OF_DAY_MASK));
 725:Generated_Source\PSoC4/RTC.h **** }
 726:Generated_Source\PSoC4/RTC.h **** 
 727:Generated_Source\PSoC4/RTC.h **** 
 728:Generated_Source\PSoC4/RTC.h **** /*******************************************************************************
 729:Generated_Source\PSoC4/RTC.h **** * Function Name: RTC_GetDay
 730:Generated_Source\PSoC4/RTC.h **** ****************************************************************************//**
 731:Generated_Source\PSoC4/RTC.h **** *
 732:Generated_Source\PSoC4/RTC.h **** * Returns the day value from the date value that is passed as parameter.
 733:Generated_Source\PSoC4/RTC.h **** *
 734:Generated_Source\PSoC4/RTC.h **** * \param date
 735:Generated_Source\PSoC4/RTC.h **** * The date value.
 736:Generated_Source\PSoC4/RTC.h **** *
 737:Generated_Source\PSoC4/RTC.h **** * \return
 738:Generated_Source\PSoC4/RTC.h **** * The day value.
 739:Generated_Source\PSoC4/RTC.h **** *
 740:Generated_Source\PSoC4/RTC.h **** *******************************************************************************/
 741:Generated_Source\PSoC4/RTC.h **** static CY_INLINE uint32 RTC_GetDay(uint32 date)
 742:Generated_Source\PSoC4/RTC.h **** {
 743:Generated_Source\PSoC4/RTC.h ****     uint32 retVal;
 744:Generated_Source\PSoC4/RTC.h **** 
 745:Generated_Source\PSoC4/RTC.h ****     retVal  = ((date & RTC_10_DAY_MASK) >> RTC_10_DAY_OFFSET) * 10u;
 746:Generated_Source\PSoC4/RTC.h ****     retVal += (date & RTC_DAY_MASK) >> RTC_DAY_OFFSET;
 747:Generated_Source\PSoC4/RTC.h **** 
 748:Generated_Source\PSoC4/RTC.h ****     return (retVal);
 749:Generated_Source\PSoC4/RTC.h **** }
 750:Generated_Source\PSoC4/RTC.h **** 
 751:Generated_Source\PSoC4/RTC.h **** 
 752:Generated_Source\PSoC4/RTC.h **** /*******************************************************************************
 753:Generated_Source\PSoC4/RTC.h **** * Function Name: RTC_GetMonth
 754:Generated_Source\PSoC4/RTC.h **** ****************************************************************************//**
 755:Generated_Source\PSoC4/RTC.h **** *
 756:Generated_Source\PSoC4/RTC.h **** * Returns the month value from the date value that is passed as parameter.
ARM GAS  C:\Users\ben\AppData\Local\Temp\ccgDM0ga.s 			page 22


 757:Generated_Source\PSoC4/RTC.h **** *
 758:Generated_Source\PSoC4/RTC.h **** * \param date
 759:Generated_Source\PSoC4/RTC.h **** * The date value.
 760:Generated_Source\PSoC4/RTC.h **** *
 761:Generated_Source\PSoC4/RTC.h **** * \return
 762:Generated_Source\PSoC4/RTC.h **** * The month value.
 763:Generated_Source\PSoC4/RTC.h **** *
 764:Generated_Source\PSoC4/RTC.h **** *******************************************************************************/
 765:Generated_Source\PSoC4/RTC.h **** static CY_INLINE uint32 RTC_GetMonth(uint32 date)
 766:Generated_Source\PSoC4/RTC.h **** {
 767:Generated_Source\PSoC4/RTC.h ****     uint32 retVal;
 768:Generated_Source\PSoC4/RTC.h **** 
 769:Generated_Source\PSoC4/RTC.h ****     retVal  = ((date & RTC_10_MONTH_MASK) >> RTC_10_MONTH_OFFSET) * 10u;
 770:Generated_Source\PSoC4/RTC.h ****     retVal += (date & RTC_MONTH_MASK) >> RTC_MONTH_OFFSET;
 771:Generated_Source\PSoC4/RTC.h **** 
 772:Generated_Source\PSoC4/RTC.h ****     return (retVal);
 773:Generated_Source\PSoC4/RTC.h **** }
 774:Generated_Source\PSoC4/RTC.h **** 
 775:Generated_Source\PSoC4/RTC.h **** 
 776:Generated_Source\PSoC4/RTC.h **** /*******************************************************************************
 777:Generated_Source\PSoC4/RTC.h **** * Function Name: RTC_GetYear
 778:Generated_Source\PSoC4/RTC.h **** ****************************************************************************//**
 779:Generated_Source\PSoC4/RTC.h **** *
 780:Generated_Source\PSoC4/RTC.h **** * Returns the year value from the date value that is passed as parameter.
 781:Generated_Source\PSoC4/RTC.h **** *
 782:Generated_Source\PSoC4/RTC.h **** * \param date
 783:Generated_Source\PSoC4/RTC.h **** * The date value.
 784:Generated_Source\PSoC4/RTC.h **** *
 785:Generated_Source\PSoC4/RTC.h **** * \return
 786:Generated_Source\PSoC4/RTC.h **** * The year value.
 787:Generated_Source\PSoC4/RTC.h **** *
 788:Generated_Source\PSoC4/RTC.h **** *******************************************************************************/
 789:Generated_Source\PSoC4/RTC.h **** static CY_INLINE uint32 RTC_GetYear(uint32 date)
 790:Generated_Source\PSoC4/RTC.h **** {
 791:Generated_Source\PSoC4/RTC.h ****     uint32 retVal;
 792:Generated_Source\PSoC4/RTC.h **** 
 793:Generated_Source\PSoC4/RTC.h ****     retVal  = ((date & RTC_1000_YEAR_MASK) >> RTC_1000_YEAR_OFFSET) * 1000u;
 314              		.loc 2 793 0
 315 000c 020B     		lsrs	r2, r0, #12
 316 000e 0326     		movs	r6, #3
 317 0010 3240     		ands	r2, r6
 318 0012 FA23     		movs	r3, #250
 319 0014 9B00     		lsls	r3, r3, #2
 320 0016 5343     		muls	r3, r2
 321 0018 1C00     		movs	r4, r3
 322              	.LVL18:
 794:Generated_Source\PSoC4/RTC.h ****     retVal += ((date & RTC_100_YEAR_MASK) >> RTC_100_YEAR_OFFSET) * 100u;
 323              		.loc 2 794 0
 324 001a 020A     		lsrs	r2, r0, #8
 325 001c 0F25     		movs	r5, #15
 326 001e 2A40     		ands	r2, r5
 327 0020 6421     		movs	r1, #100
 328 0022 0B00     		movs	r3, r1
 329              	.LVL19:
 330 0024 5343     		muls	r3, r2
 331 0026 E218     		adds	r2, r4, r3
 332              	.LVL20:
ARM GAS  C:\Users\ben\AppData\Local\Temp\ccgDM0ga.s 			page 23


 795:Generated_Source\PSoC4/RTC.h ****     retVal += ((date & RTC_10_YEAR_MASK) >> RTC_10_YEAR_OFFSET) * 10u;
 333              		.loc 2 795 0
 334 0028 0309     		lsrs	r3, r0, #4
 335 002a 2B40     		ands	r3, r5
 336 002c 9900     		lsls	r1, r3, #2
 337 002e CB18     		adds	r3, r1, r3
 338 0030 5900     		lsls	r1, r3, #1
 339 0032 5218     		adds	r2, r2, r1
 340              	.LVL21:
 796:Generated_Source\PSoC4/RTC.h ****     retVal += (date & RTC_YEAR_MASK) >> RTC_YEAR_OFFSET;
 341              		.loc 2 796 0
 342 0034 2B00     		movs	r3, r5
 343 0036 0340     		ands	r3, r0
 344 0038 D218     		adds	r2, r2, r3
 345              	.LVL22:
 346              	.LBE21:
 347              	.LBE20:
 348              	.LBB22:
 349              	.LBB23:
 769:Generated_Source\PSoC4/RTC.h ****     retVal += (date & RTC_MONTH_MASK) >> RTC_MONTH_OFFSET;
 350              		.loc 2 769 0
 351 003a 030F     		lsrs	r3, r0, #28
 352 003c 0124     		movs	r4, #1
 353 003e 1C40     		ands	r4, r3
 354 0040 A300     		lsls	r3, r4, #2
 355 0042 1C19     		adds	r4, r3, r4
 356 0044 6100     		lsls	r1, r4, #1
 357              	.LVL23:
 770:Generated_Source\PSoC4/RTC.h **** 
 358              		.loc 2 770 0
 359 0046 030E     		lsrs	r3, r0, #24
 360 0048 2B40     		ands	r3, r5
 361 004a CB18     		adds	r3, r1, r3
 362              	.LVL24:
 363              	.LBE23:
 364              	.LBE22:
 365              	.LBB24:
 366              	.LBB25:
 745:Generated_Source\PSoC4/RTC.h ****     retVal += (date & RTC_DAY_MASK) >> RTC_DAY_OFFSET;
 367              		.loc 2 745 0
 368 004c 010D     		lsrs	r1, r0, #20
 369 004e 3140     		ands	r1, r6
 370 0050 8C00     		lsls	r4, r1, #2
 371 0052 6118     		adds	r1, r4, r1
 372 0054 4C00     		lsls	r4, r1, #1
 373              	.LVL25:
 746:Generated_Source\PSoC4/RTC.h **** 
 374              		.loc 2 746 0
 375 0056 000C     		lsrs	r0, r0, #16
 376              	.LVL26:
 377 0058 2840     		ands	r0, r5
 378 005a 2018     		adds	r0, r4, r0
 379              	.LVL27:
 380              	.LBE25:
 381              	.LBE24:
  51:MyTime.c      ****     return dateBuffer;
 382              		.loc 1 51 0
ARM GAS  C:\Users\ben\AppData\Local\Temp\ccgDM0ga.s 			page 24


 383 005c 054C     		ldr	r4, .L15+4
 384 005e 1034     		adds	r4, r4, #16
 385 0060 0090     		str	r0, [sp]
 386 0062 0549     		ldr	r1, .L15+8
 387 0064 2000     		movs	r0, r4
 388 0066 FFF7FEFF 		bl	sprintf
 389              	.LVL28:
  53:MyTime.c      **** 
 390              		.loc 1 53 0
 391 006a 2000     		movs	r0, r4
 392 006c 02B0     		add	sp, sp, #8
 393              		@ sp needed
 394 006e 70BD     		pop	{r4, r5, r6, pc}
 395              	.L16:
 396              		.align	2
 397              	.L15:
 398 0070 00000000 		.word	date
 399 0074 00000000 		.word	.LANCHOR0
 400 0078 00000000 		.word	.LC1
 401              		.cfi_endproc
 402              	.LFE37:
 403              		.size	buildDateString, .-buildDateString
 404              		.section	.text.getTimeDateString,"ax",%progbits
 405              		.align	2
 406              		.global	getTimeDateString
 407              		.code	16
 408              		.thumb_func
 409              		.type	getTimeDateString, %function
 410              	getTimeDateString:
 411              	.LFB38:
  55:MyTime.c      ****     date = RTC_GetDate();
 412              		.loc 1 55 0
 413              		.cfi_startproc
 414              		@ args = 0, pretend = 0, frame = 0
 415              		@ frame_needed = 0, uses_anonymous_args = 0
 416 0000 70B5     		push	{r4, r5, r6, lr}
 417              		.cfi_def_cfa_offset 16
 418              		.cfi_offset 4, -16
 419              		.cfi_offset 5, -12
 420              		.cfi_offset 6, -8
 421              		.cfi_offset 14, -4
  56:MyTime.c      ****         //sprintf(dateBuffer, "%02lu/%02lu/%02lu", RTC_GetMonth(date), RTC_GetDay(date), RTC_GetYea
 422              		.loc 1 56 0
 423 0002 FFF7FEFF 		bl	RTC_GetDate
 424              	.LVL29:
 425 0006 084B     		ldr	r3, .L18
 426 0008 1860     		str	r0, [r3]
  58:MyTime.c      ****     
 427              		.loc 1 58 0
 428 000a FFF7FEFF 		bl	buildDateString
 429              	.LVL30:
 430 000e 0500     		movs	r5, r0
 431 0010 FFF7FEFF 		bl	buildTimeString
 432              	.LVL31:
 433 0014 0300     		movs	r3, r0
 434 0016 054C     		ldr	r4, .L18+4
 435 0018 2034     		adds	r4, r4, #32
ARM GAS  C:\Users\ben\AppData\Local\Temp\ccgDM0ga.s 			page 25


 436 001a 2A00     		movs	r2, r5
 437 001c 0449     		ldr	r1, .L18+8
 438 001e 2000     		movs	r0, r4
 439 0020 FFF7FEFF 		bl	sprintf
 440              	.LVL32:
  66:MyTime.c      **** 
 441              		.loc 1 66 0
 442 0024 2000     		movs	r0, r4
 443              		@ sp needed
 444 0026 70BD     		pop	{r4, r5, r6, pc}
 445              	.L19:
 446              		.align	2
 447              	.L18:
 448 0028 00000000 		.word	date
 449 002c 00000000 		.word	.LANCHOR0
 450 0030 14000000 		.word	.LC9
 451              		.cfi_endproc
 452              	.LFE38:
 453              		.size	getTimeDateString, .-getTimeDateString
 454              		.section	.text.initDefaultAlarm,"ax",%progbits
 455              		.align	2
 456              		.global	initDefaultAlarm
 457              		.code	16
 458              		.thumb_func
 459              		.type	initDefaultAlarm, %function
 460              	initDefaultAlarm:
 461              	.LFB39:
  68:MyTime.c      ****     
 462              		.loc 1 68 0
 463              		.cfi_startproc
 464              		@ args = 0, pretend = 0, frame = 0
 465              		@ frame_needed = 0, uses_anonymous_args = 0
 466 0000 10B5     		push	{r4, lr}
 467              		.cfi_def_cfa_offset 8
 468              		.cfi_offset 4, -8
 469              		.cfi_offset 14, -4
  71:MyTime.c      ****     
 470              		.loc 1 71 0
 471 0002 0220     		movs	r0, #2
 472 0004 4042     		rsbs	r0, r0, #0
 473 0006 FFF7FEFF 		bl	RTC_SetAlarmMask
 474              	.LVL33:
  74:MyTime.c      **** 
 475              		.loc 1 74 0
 476 000a 0348     		ldr	r0, .L21
 477 000c FFF7FEFF 		bl	RTC_SetAlarmDateAndTime
 478              	.LVL34:
  77:MyTime.c      **** }
 479              		.loc 1 77 0
 480 0010 0248     		ldr	r0, .L21+4
 481 0012 FFF7FEFF 		bl	RTC_SetAlarmHandler
 482              	.LVL35:
  78:MyTime.c      **** 
 483              		.loc 1 78 0
 484              		@ sp needed
 485 0016 10BD     		pop	{r4, pc}
 486              	.L22:
ARM GAS  C:\Users\ben\AppData\Local\Temp\ccgDM0ga.s 			page 26


 487              		.align	2
 488              	.L21:
 489 0018 00000000 		.word	alarmTimeDate
 490 001c 00000000 		.word	AlarmIsrHandler
 491              		.cfi_endproc
 492              	.LFE39:
 493              		.size	initDefaultAlarm, .-initDefaultAlarm
 494              		.comm	date,4,4
 495              		.comm	time,4,4
 496              		.comm	alarmTimeDate,16,4
 497              		.section	.rodata.str1.4,"aMS",%progbits,1
 498              		.align	2
 499              	.LC1:
 500 0000 2530326C 		.ascii	"%02lu-%02lu-%02lu\000"
 500      752D2530 
 500      326C752D 
 500      2530326C 
 500      7500
 501 0012 0000     		.space	2
 502              	.LC9:
 503 0014 2532735F 		.ascii	"%2s_%2s\000"
 503      25327300 
 504              		.bss
 505              		.align	2
 506              		.set	.LANCHOR0,. + 0
 507              		.type	timeBuffer, %object
 508              		.size	timeBuffer, 16
 509              	timeBuffer:
 510 0000 00000000 		.space	16
 510      00000000 
 510      00000000 
 510      00000000 
 511              		.type	dateBuffer, %object
 512              		.size	dateBuffer, 16
 513              	dateBuffer:
 514 0010 00000000 		.space	16
 514      00000000 
 514      00000000 
 514      00000000 
 515              		.type	timeDateBuffer, %object
 516              		.size	timeDateBuffer, 40
 517              	timeDateBuffer:
 518 0020 00000000 		.space	40
 518      00000000 
 518      00000000 
 518      00000000 
 518      00000000 
 519              		.text
 520              	.Letext0:
 521              		.file 3 "Generated_Source\\PSoC4/cytypes.h"
 522              		.file 4 "MyTime.h"
 523              		.file 5 "c:\\program files (x86)\\cypress\\psoc creator\\4.3\\psoc creator\\import\\gnu\\arm\\5.4.