ARM GAS  C:\Users\ben\AppData\Local\Temp\ccmBE4Qn.s 			page 1


   1              		.syntax unified
   2              		.cpu cortex-m0
   3              		.fpu softvfp
   4              		.eabi_attribute 20, 1
   5              		.eabi_attribute 21, 1
   6              		.eabi_attribute 23, 3
   7              		.eabi_attribute 24, 1
   8              		.eabi_attribute 25, 1
   9              		.eabi_attribute 26, 1
  10              		.eabi_attribute 30, 1
  11              		.eabi_attribute 34, 0
  12              		.eabi_attribute 18, 4
  13              		.thumb
  14              		.syntax unified
  15              		.file	"MyWDT.c"
  16              		.text
  17              	.Ltext0:
  18              		.cfi_sections	.debug_frame
  19              		.section	.text.UpdateTimeIsrWDT1Handler,"ax",%progbits
  20              		.align	2
  21              		.global	UpdateTimeIsrWDT1Handler
  22              		.code	16
  23              		.thumb_func
  24              		.type	UpdateTimeIsrWDT1Handler, %function
  25              	UpdateTimeIsrWDT1Handler:
  26              	.LFB36:
  27              		.file 1 "MyWDT.c"
   1:MyWDT.c       **** /* ========================================
   2:MyWDT.c       ****  *
   3:MyWDT.c       ****  * Copyright YOUR COMPANY, THE YEAR
   4:MyWDT.c       ****  * All Rights Reserved
   5:MyWDT.c       ****  * UNPUBLISHED, LICENSED SOFTWARE.
   6:MyWDT.c       ****  *
   7:MyWDT.c       ****  * CONFIDENTIAL AND PROPRIETARY INFORMATION
   8:MyWDT.c       ****  * WHICH IS THE PROPERTY OF your company.
   9:MyWDT.c       ****  *
  10:MyWDT.c       ****  * ========================================
  11:MyWDT.c       **** */
  12:MyWDT.c       **** #include "MyWDT.h"
  13:MyWDT.c       **** #include "DIO_0_3.h"
  14:MyWDT.c       **** #include "DIO_0_3_aliases.h"
  15:MyWDT.c       **** 
  16:MyWDT.c       **** 
  17:MyWDT.c       **** void setAllWDTisr(){
  18:MyWDT.c       ****         /* Map the WatchDog_ISR vector to the WDT_ISR */
  19:MyWDT.c       ****     isr_WDT_StartEx(WDT_ISR);
  20:MyWDT.c       **** }
  21:MyWDT.c       **** 
  22:MyWDT.c       **** /*
  23:MyWDT.c       **** CY_ISR(WDT_ISR)
  24:MyWDT.c       **** {
  25:MyWDT.c       ****     // Clear WDT interrupt 
  26:MyWDT.c       ****     CySysWdtClearInterrupt();
  27:MyWDT.c       **** 
  28:MyWDT.c       ****     // Write WDT_MATCH with current match value + desired match value
  29:MyWDT.c       ****     //CySysWdtWriteMatch((uint16)CySysWdtReadMatch()+ILODelayCycles);
  30:MyWDT.c       **** }
ARM GAS  C:\Users\ben\AppData\Local\Temp\ccmBE4Qn.s 			page 2


  31:MyWDT.c       **** */
  32:MyWDT.c       **** CY_ISR(WDT_ISR)
  33:MyWDT.c       **** {
  34:MyWDT.c       ****     UART_PutString("\r\nwdtInterruptHandler\r\n");
  35:MyWDT.c       ****     DIO_0_3_Write(!(DIO_0_3_Read()));
  36:MyWDT.c       ****     //trigger_Write(1); // Chip is woken up 
  37:MyWDT.c       ****     uint32 reason = CySysWdtGetInterruptSource();
  38:MyWDT.c       ****     
  39:MyWDT.c       ****     if(reason & CY_SYS_WDT_COUNTER0_INT)
  40:MyWDT.c       ****         //RED_Write(~RED_Read());
  41:MyWDT.c       ****         //EnableRtcOperation();
  42:MyWDT.c       ****         //WDT_CHK_ISR0();
  43:MyWDT.c       ****         EnableRtcWDT0Operation();
  44:MyWDT.c       ****   
  45:MyWDT.c       ****     if(reason & CY_SYS_WDT_COUNTER1_INT)
  46:MyWDT.c       ****         //GREEN_Write(~GREEN_Read());
  47:MyWDT.c       ****   
  48:MyWDT.c       ****     if(reason & CY_SYS_WDT_COUNTER2_INT)
  49:MyWDT.c       ****         //BLUE_Write(~BLUE_Read());
  50:MyWDT.c       ****         //RTC_Update();
  51:MyWDT.c       ****         myRTC_Update();
  52:MyWDT.c       ****   
  53:MyWDT.c       ****     CySysWdtClearInterrupt(reason);  // Clear the WDT Interrupt
  54:MyWDT.c       ****     
  55:MyWDT.c       **** }
  56:MyWDT.c       **** 
  57:MyWDT.c       **** void initWDT0(){
  58:MyWDT.c       ****     /* Prepare COUNTER0 to use it by CySysTimerDelay function in
  59:MyWDT.c       ****      * "INTERRUPT" mode: disable "clear on match" functionality, configure
  60:MyWDT.c       ****      * COUNTER0 to generate interrupts on match.
  61:MyWDT.c       ****      */
  62:MyWDT.c       ****     CySysWdtSetClearOnMatch(CY_SYS_WDT_COUNTER0, 0u);
  63:MyWDT.c       ****     CySysWdtSetMode(CY_SYS_WDT_COUNTER0, CY_SYS_WDT_MODE_INT);
  64:MyWDT.c       ****     
  65:MyWDT.c       ****     /* Enable WDT COUNTER0 */
  66:MyWDT.c       ****     CySysWdtEnable(CY_SYS_WDT_COUNTER0_MASK);
  67:MyWDT.c       ****     
  68:MyWDT.c       ****     /* Disable servicing interrupts from WDT_COUNTER0 to prevent
  69:MyWDT.c       ****        trigger callback before the CySysTimerDelay() function. */
  70:MyWDT.c       ****     CySysWdtDisableCounterIsr(CY_SYS_WDT_COUNTER0);
  71:MyWDT.c       ****     
  72:MyWDT.c       ****     /* Register EnableRtcOperation() by the COUNTER0. */
  73:MyWDT.c       ****     CySysWdtSetInterruptCallback(CY_SYS_WDT_COUNTER0, EnableRtcWDT0Operation);
  74:MyWDT.c       ****     
  75:MyWDT.c       ****     /* Initiate run the EnableRtcOperation() callback in WCO_STARTUP_DELAY_CYCLES interval. */
  76:MyWDT.c       ****     //CySysTimerDelay(CY_SYS_WDT_COUNTER0, CY_SYS_TIMER_INTERRUPT, WCO_STARTUP_DELAY_CYCLES);
  77:MyWDT.c       ****     CySysTimerDelay(CY_SYS_WDT_COUNTER0, CY_SYS_TIMER_INTERRUPT, MY_DELAY_CYCLES);
  78:MyWDT.c       **** }
  79:MyWDT.c       **** 
  80:MyWDT.c       **** /*******************************************************************************
  81:MyWDT.c       **** * Function Name: UpdateTimeIsrHandler
  82:MyWDT.c       **** ********************************************************************************
  83:MyWDT.c       **** * Summary: 
  84:MyWDT.c       **** *  This interrupt handler is intended to switch LFCLK source from ILO to WCO and
  85:MyWDT.c       **** *  enable RTC operation. 
  86:MyWDT.c       **** *
  87:MyWDT.c       **** * Parameters:
ARM GAS  C:\Users\ben\AppData\Local\Temp\ccmBE4Qn.s 			page 3


  88:MyWDT.c       **** *  None
  89:MyWDT.c       **** *
  90:MyWDT.c       **** * Return:
  91:MyWDT.c       **** *  None
  92:MyWDT.c       **** *
  93:MyWDT.c       **** *******************************************************************************/
  94:MyWDT.c       **** //void EnableRtcWDT0Operation(void)
  95:MyWDT.c       **** void EnableRtcWDT0Operation(void)
  96:MyWDT.c       **** {
  97:MyWDT.c       ****     //DIO_0_3_Write(!(DIO_0_3_Read()));
  98:MyWDT.c       ****     /* Switch LFCLK source from ILO to WCO. */
  99:MyWDT.c       ****     CySysClkSetLfclkSource(CY_SYS_CLK_LFCLK_SRC_WCO);
 100:MyWDT.c       ****     
 101:MyWDT.c       ****     /* Configure COUNTER0 to generate interrupt every second. */
 102:MyWDT.c       ****     CySysWdtDisable(CY_SYS_WDT_COUNTER0_MASK);
 103:MyWDT.c       ****     CySysWdtSetClearOnMatch(CY_SYS_WDT_COUNTER0, 1u);
 104:MyWDT.c       ****     //^^^^^^^^^^^^Default^^^^^^^^^^^^^^^
 105:MyWDT.c       ****     //CySysWdtSetClearOnMatch(CY_SYS_WDT_COUNTER0, 2u);
 106:MyWDT.c       ****     //CySysWdtSetMatch(CY_SYS_WDT_COUNTER0, LFCLK_CYCLES_PER_SECOND);
 107:MyWDT.c       ****     //^^^^^^^^^^^^Default^^^^^^^^^^^^^^^
 108:MyWDT.c       ****     CySysWdtSetMatch(CY_SYS_WDT_COUNTER0, MY_DELAY_CYCLES);
 109:MyWDT.c       ****     
 110:MyWDT.c       ****     CySysWdtEnable(CY_SYS_WDT_COUNTER0_MASK);
 111:MyWDT.c       ****     
 112:MyWDT.c       ****     /* Eegister UpdateTimeIsrHandler() by the COUNTER0. */
 113:MyWDT.c       ****     CySysWdtSetInterruptCallback(CY_SYS_WDT_COUNTER0, UpdateTimeIsrWDT0Handler);
 114:MyWDT.c       ****     
 115:MyWDT.c       ****     /* Enable the COUNTER0 ISR handler. */
 116:MyWDT.c       ****     CySysWdtEnableCounterIsr(CY_SYS_WDT_COUNTER0);
 117:MyWDT.c       ****     
 118:MyWDT.c       ****     /* Configure the LFCLK_Out pin to drive it by LFCLK. */
 119:MyWDT.c       ****     //LFCLK_Out_SetDriveMode(LFCLK_Out_DM_STRONG);
 120:MyWDT.c       **** }
 121:MyWDT.c       **** 
 122:MyWDT.c       **** 
 123:MyWDT.c       **** /*******************************************************************************
 124:MyWDT.c       **** * Function Name: UpdateTimeIsrWDT0Handler
 125:MyWDT.c       **** ********************************************************************************
 126:MyWDT.c       **** * Summary: 
 127:MyWDT.c       **** *  The interrupt handler for WDT counter 0 interrupts. Toggles the LED_WdtIsr 
 128:MyWDT.c       **** *  pin.
 129:MyWDT.c       **** *
 130:MyWDT.c       **** * Parameters:
 131:MyWDT.c       **** *  None
 132:MyWDT.c       **** *
 133:MyWDT.c       **** * Return:
 134:MyWDT.c       **** *  None
 135:MyWDT.c       **** *
 136:MyWDT.c       **** *******************************************************************************/
 137:MyWDT.c       **** void UpdateTimeIsrWDT0Handler(void)
 138:MyWDT.c       **** {
 139:MyWDT.c       ****     //DIO_0_0_Write(!(DIO_0_0_Read()));
 140:MyWDT.c       ****     /* Toggle pin state */
 141:MyWDT.c       ****     //LED_WdtIsr_Write((uint8)~(LED_WdtIsr_Read()));
 142:MyWDT.c       ****     myRTC_Update();
 143:MyWDT.c       ****     
 144:MyWDT.c       ****     DIO_0_3_Write(!(DIO_0_3_Read()));
ARM GAS  C:\Users\ben\AppData\Local\Temp\ccmBE4Qn.s 			page 4


 145:MyWDT.c       **** }
 146:MyWDT.c       **** 
 147:MyWDT.c       **** 
 148:MyWDT.c       **** 
 149:MyWDT.c       **** void initWDT1(){
 150:MyWDT.c       ****         /* Prepare COUNTER0 to use it by CySysTimerDelay function in
 151:MyWDT.c       ****      * "INTERRUPT" mode: disable "clear on match" functionality, configure
 152:MyWDT.c       ****      * COUNTER0 to generate interrupts on match.
 153:MyWDT.c       ****      */
 154:MyWDT.c       ****     CySysWdtSetClearOnMatch(CY_SYS_WDT_COUNTER1, 0u);
 155:MyWDT.c       ****     CySysWdtSetMode(CY_SYS_WDT_COUNTER1, CY_SYS_WDT_MODE_INT);
 156:MyWDT.c       ****     
 157:MyWDT.c       ****     /* Enable WDT COUNTER0 */
 158:MyWDT.c       ****     CySysWdtEnable(CY_SYS_WDT_COUNTER1_MASK);
 159:MyWDT.c       ****     
 160:MyWDT.c       ****     /* Disable servicing interrupts from WDT_COUNTER0 to prevent
 161:MyWDT.c       ****        trigger callback before the CySysTimerDelay() function. */
 162:MyWDT.c       ****     CySysWdtDisableCounterIsr(CY_SYS_WDT_COUNTER1);
 163:MyWDT.c       ****     
 164:MyWDT.c       ****     /* Register EnableRtcOperation() by the COUNTER0. */
 165:MyWDT.c       ****     CySysWdtSetInterruptCallback(CY_SYS_WDT_COUNTER1, EnableRtcWDT0Operation);
 166:MyWDT.c       ****     
 167:MyWDT.c       ****     /* Initiate run the EnableRtcOperation() callback in WCO_STARTUP_DELAY_CYCLES interval. */
 168:MyWDT.c       ****     //CySysTimerDelay(CY_SYS_WDT_COUNTER0, CY_SYS_TIMER_INTERRUPT, WCO_STARTUP_DELAY_CYCLES);
 169:MyWDT.c       ****     CySysTimerDelay(CY_SYS_WDT_COUNTER1, CY_SYS_TIMER_INTERRUPT, MY_DELAY_CYCLES);
 170:MyWDT.c       **** }
 171:MyWDT.c       **** 
 172:MyWDT.c       **** /*******************************************************************************
 173:MyWDT.c       **** * Function Name: UpdateTimeIsrHandler
 174:MyWDT.c       **** ********************************************************************************
 175:MyWDT.c       **** * Summary: 
 176:MyWDT.c       **** *  This interrupt handler is intended to switch LFCLK source from ILO to WCO and
 177:MyWDT.c       **** *  enable RTC operation. 
 178:MyWDT.c       **** *
 179:MyWDT.c       **** * Parameters:
 180:MyWDT.c       **** *  None
 181:MyWDT.c       **** *
 182:MyWDT.c       **** * Return:
 183:MyWDT.c       **** *  None
 184:MyWDT.c       **** *
 185:MyWDT.c       **** *******************************************************************************/
 186:MyWDT.c       **** void EnableRtcWDT1Operation(void)
 187:MyWDT.c       **** {
 188:MyWDT.c       ****     //DIO_0_3_Write(!(DIO_0_3_Read()));
 189:MyWDT.c       ****     /* Switch LFCLK source from ILO to WCO. */
 190:MyWDT.c       ****     CySysClkSetLfclkSource(CY_SYS_CLK_LFCLK_SRC_WCO);
 191:MyWDT.c       ****     
 192:MyWDT.c       ****     /* Configure COUNTER0 to generate interrupt every second. */
 193:MyWDT.c       ****     CySysWdtDisable(CY_SYS_WDT_COUNTER1_MASK);
 194:MyWDT.c       ****     CySysWdtSetClearOnMatch(CY_SYS_WDT_COUNTER1, 1u);
 195:MyWDT.c       ****     //^^^^^^^^^^^^Default^^^^^^^^^^^^^^^
 196:MyWDT.c       ****     //CySysWdtSetClearOnMatch(CY_SYS_WDT_COUNTER0, 2u);
 197:MyWDT.c       ****     //CySysWdtSetMatch(CY_SYS_WDT_COUNTER0, LFCLK_CYCLES_PER_SECOND);
 198:MyWDT.c       ****     //^^^^^^^^^^^^Default^^^^^^^^^^^^^^^
 199:MyWDT.c       ****     CySysWdtSetMatch(CY_SYS_WDT_COUNTER1, MY_DELAY_CYCLES);
 200:MyWDT.c       ****     
 201:MyWDT.c       ****     CySysWdtEnable(CY_SYS_WDT_COUNTER1_MASK);
ARM GAS  C:\Users\ben\AppData\Local\Temp\ccmBE4Qn.s 			page 5


 202:MyWDT.c       ****     
 203:MyWDT.c       ****     /* Eegister UpdateTimeIsrHandler() by the COUNTER0. */
 204:MyWDT.c       ****     CySysWdtSetInterruptCallback(CY_SYS_WDT_COUNTER1, UpdateTimeIsrWDT1Handler);
 205:MyWDT.c       ****     
 206:MyWDT.c       ****     /* Enable the COUNTER0 ISR handler. */
 207:MyWDT.c       ****     CySysWdtEnableCounterIsr(CY_SYS_WDT_COUNTER1);
 208:MyWDT.c       ****     
 209:MyWDT.c       ****     /* Configure the LFCLK_Out pin to drive it by LFCLK. */
 210:MyWDT.c       ****     //LFCLK_Out_SetDriveMode(LFCLK_Out_DM_STRONG);
 211:MyWDT.c       **** }
 212:MyWDT.c       **** 
 213:MyWDT.c       **** /*******************************************************************************
 214:MyWDT.c       **** * Function Name: UpdateTimeIsrWDT0Handler
 215:MyWDT.c       **** ********************************************************************************
 216:MyWDT.c       **** * Summary: 
 217:MyWDT.c       **** *  The interrupt handler for WDT counter 0 interrupts. Toggles the LED_WdtIsr 
 218:MyWDT.c       **** *  pin.
 219:MyWDT.c       **** *
 220:MyWDT.c       **** * Parameters:
 221:MyWDT.c       **** *  None
 222:MyWDT.c       **** *
 223:MyWDT.c       **** * Return:
 224:MyWDT.c       **** *  None
 225:MyWDT.c       **** *
 226:MyWDT.c       **** *******************************************************************************/
 227:MyWDT.c       **** void UpdateTimeIsrWDT1Handler(void)
 228:MyWDT.c       **** {
  28              		.loc 1 228 0
  29              		.cfi_startproc
  30              		@ args = 0, pretend = 0, frame = 0
  31              		@ frame_needed = 0, uses_anonymous_args = 0
  32              		@ link register save eliminated.
 229:MyWDT.c       ****     //DIO_0_0_Write(!(DIO_0_0_Read()));
 230:MyWDT.c       ****     /* Toggle pin state */
 231:MyWDT.c       ****     //LED_WdtIsr_Write((uint8)~(LED_WdtIsr_Read()));
 232:MyWDT.c       ****     //myRTC_Update();
 233:MyWDT.c       ****     
 234:MyWDT.c       ****     //DIO_0_3_Write(!(DIO_0_3_Read()));
 235:MyWDT.c       **** }
  33              		.loc 1 235 0
  34              		@ sp needed
  35 0000 7047     		bx	lr
  36              		.cfi_endproc
  37              	.LFE36:
  38              		.size	UpdateTimeIsrWDT1Handler, .-UpdateTimeIsrWDT1Handler
  39 0002 C046     		.section	.text.UpdateTimeIsrWDT0Handler,"ax",%progbits
  40              		.align	2
  41              		.global	UpdateTimeIsrWDT0Handler
  42              		.code	16
  43              		.thumb_func
  44              		.type	UpdateTimeIsrWDT0Handler, %function
  45              	UpdateTimeIsrWDT0Handler:
  46              	.LFB33:
 138:MyWDT.c       ****     //DIO_0_0_Write(!(DIO_0_0_Read()));
  47              		.loc 1 138 0
  48              		.cfi_startproc
  49              		@ args = 0, pretend = 0, frame = 0
ARM GAS  C:\Users\ben\AppData\Local\Temp\ccmBE4Qn.s 			page 6


  50              		@ frame_needed = 0, uses_anonymous_args = 0
  51 0000 10B5     		push	{r4, lr}
  52              		.cfi_def_cfa_offset 8
  53              		.cfi_offset 4, -8
  54              		.cfi_offset 14, -4
 142:MyWDT.c       ****     
  55              		.loc 1 142 0
  56 0002 FFF7FEFF 		bl	myRTC_Update
  57              	.LVL0:
 144:MyWDT.c       **** }
  58              		.loc 1 144 0
  59 0006 FFF7FEFF 		bl	DIO_0_3_Read
  60              	.LVL1:
  61 000a 4342     		rsbs	r3, r0, #0
  62 000c 5841     		adcs	r0, r0, r3
  63 000e C0B2     		uxtb	r0, r0
  64 0010 FFF7FEFF 		bl	DIO_0_3_Write
  65              	.LVL2:
 145:MyWDT.c       **** 
  66              		.loc 1 145 0
  67              		@ sp needed
  68 0014 10BD     		pop	{r4, pc}
  69              		.cfi_endproc
  70              	.LFE33:
  71              		.size	UpdateTimeIsrWDT0Handler, .-UpdateTimeIsrWDT0Handler
  72 0016 C046     		.section	.text.EnableRtcWDT0Operation,"ax",%progbits
  73              		.align	2
  74              		.global	EnableRtcWDT0Operation
  75              		.code	16
  76              		.thumb_func
  77              		.type	EnableRtcWDT0Operation, %function
  78              	EnableRtcWDT0Operation:
  79              	.LFB32:
  96:MyWDT.c       ****     //DIO_0_3_Write(!(DIO_0_3_Read()));
  80              		.loc 1 96 0
  81              		.cfi_startproc
  82              		@ args = 0, pretend = 0, frame = 0
  83              		@ frame_needed = 0, uses_anonymous_args = 0
  84 0000 10B5     		push	{r4, lr}
  85              		.cfi_def_cfa_offset 8
  86              		.cfi_offset 4, -8
  87              		.cfi_offset 14, -4
  99:MyWDT.c       ****     
  88              		.loc 1 99 0
  89 0002 8020     		movs	r0, #128
  90 0004 C005     		lsls	r0, r0, #23
  91 0006 FFF7FEFF 		bl	CySysClkSetLfclkSource
  92              	.LVL3:
 102:MyWDT.c       ****     CySysWdtSetClearOnMatch(CY_SYS_WDT_COUNTER0, 1u);
  93              		.loc 1 102 0
  94 000a 0120     		movs	r0, #1
  95 000c FFF7FEFF 		bl	CySysWdtDisable
  96              	.LVL4:
 103:MyWDT.c       ****     //^^^^^^^^^^^^Default^^^^^^^^^^^^^^^
  97              		.loc 1 103 0
  98 0010 0121     		movs	r1, #1
  99 0012 0020     		movs	r0, #0
ARM GAS  C:\Users\ben\AppData\Local\Temp\ccmBE4Qn.s 			page 7


 100 0014 FFF7FEFF 		bl	CySysWdtSetClearOnMatch
 101              	.LVL5:
 108:MyWDT.c       ****     
 102              		.loc 1 108 0
 103 0018 0749     		ldr	r1, .L4
 104 001a 0020     		movs	r0, #0
 105 001c FFF7FEFF 		bl	CySysWdtSetMatch
 106              	.LVL6:
 110:MyWDT.c       ****     
 107              		.loc 1 110 0
 108 0020 0120     		movs	r0, #1
 109 0022 FFF7FEFF 		bl	CySysWdtEnable
 110              	.LVL7:
 113:MyWDT.c       ****     
 111              		.loc 1 113 0
 112 0026 0549     		ldr	r1, .L4+4
 113 0028 0020     		movs	r0, #0
 114 002a FFF7FEFF 		bl	CySysWdtSetInterruptCallback
 115              	.LVL8:
 116:MyWDT.c       ****     
 116              		.loc 1 116 0
 117 002e 0020     		movs	r0, #0
 118 0030 FFF7FEFF 		bl	CySysWdtEnableCounterIsr
 119              	.LVL9:
 120:MyWDT.c       **** 
 120              		.loc 1 120 0
 121              		@ sp needed
 122 0034 10BD     		pop	{r4, pc}
 123              	.L5:
 124 0036 C046     		.align	2
 125              	.L4:
 126 0038 FEFF0000 		.word	65534
 127 003c 00000000 		.word	UpdateTimeIsrWDT0Handler
 128              		.cfi_endproc
 129              	.LFE32:
 130              		.size	EnableRtcWDT0Operation, .-EnableRtcWDT0Operation
 131              		.section	.text.WDT_ISR,"ax",%progbits
 132              		.align	2
 133              		.global	WDT_ISR
 134              		.code	16
 135              		.thumb_func
 136              		.type	WDT_ISR, %function
 137              	WDT_ISR:
 138              	.LFB30:
  33:MyWDT.c       ****     UART_PutString("\r\nwdtInterruptHandler\r\n");
 139              		.loc 1 33 0
 140              		.cfi_startproc
 141              		@ args = 0, pretend = 0, frame = 0
 142              		@ frame_needed = 0, uses_anonymous_args = 0
 143 0000 10B5     		push	{r4, lr}
 144              		.cfi_def_cfa_offset 8
 145              		.cfi_offset 4, -8
 146              		.cfi_offset 14, -4
  34:MyWDT.c       ****     DIO_0_3_Write(!(DIO_0_3_Read()));
 147              		.loc 1 34 0
 148 0002 0D48     		ldr	r0, .L9
 149 0004 FFF7FEFF 		bl	UART_PutString
ARM GAS  C:\Users\ben\AppData\Local\Temp\ccmBE4Qn.s 			page 8


 150              	.LVL10:
  35:MyWDT.c       ****     //trigger_Write(1); // Chip is woken up 
 151              		.loc 1 35 0
 152 0008 FFF7FEFF 		bl	DIO_0_3_Read
 153              	.LVL11:
 154 000c 4342     		rsbs	r3, r0, #0
 155 000e 5841     		adcs	r0, r0, r3
 156 0010 C0B2     		uxtb	r0, r0
 157 0012 FFF7FEFF 		bl	DIO_0_3_Write
 158              	.LVL12:
  37:MyWDT.c       ****     
 159              		.loc 1 37 0
 160 0016 FFF7FEFF 		bl	CySysWdtGetInterruptSource
 161              	.LVL13:
 162 001a 0400     		movs	r4, r0
 163              	.LVL14:
  39:MyWDT.c       ****         //RED_Write(~RED_Read());
 164              		.loc 1 39 0
 165 001c 4307     		lsls	r3, r0, #29
 166 001e 01D5     		bpl	.L7
  43:MyWDT.c       ****   
 167              		.loc 1 43 0
 168 0020 FFF7FEFF 		bl	EnableRtcWDT0Operation
 169              	.LVL15:
 170              	.L7:
  45:MyWDT.c       ****         //GREEN_Write(~GREEN_Read());
 171              		.loc 1 45 0
 172 0024 6305     		lsls	r3, r4, #21
 173 0026 03D5     		bpl	.L8
  48:MyWDT.c       ****         //BLUE_Write(~BLUE_Read());
 174              		.loc 1 48 0
 175 0028 6303     		lsls	r3, r4, #13
 176 002a 01D5     		bpl	.L8
  51:MyWDT.c       ****   
 177              		.loc 1 51 0
 178 002c FFF7FEFF 		bl	myRTC_Update
 179              	.LVL16:
 180              	.L8:
  53:MyWDT.c       ****     
 181              		.loc 1 53 0
 182 0030 2000     		movs	r0, r4
 183 0032 FFF7FEFF 		bl	CySysWdtClearInterrupt
 184              	.LVL17:
  55:MyWDT.c       **** 
 185              		.loc 1 55 0
 186              		@ sp needed
 187              	.LVL18:
 188 0036 10BD     		pop	{r4, pc}
 189              	.L10:
 190              		.align	2
 191              	.L9:
 192 0038 00000000 		.word	.LC1
 193              		.cfi_endproc
 194              	.LFE30:
 195              		.size	WDT_ISR, .-WDT_ISR
 196              		.section	.text.setAllWDTisr,"ax",%progbits
 197              		.align	2
ARM GAS  C:\Users\ben\AppData\Local\Temp\ccmBE4Qn.s 			page 9


 198              		.global	setAllWDTisr
 199              		.code	16
 200              		.thumb_func
 201              		.type	setAllWDTisr, %function
 202              	setAllWDTisr:
 203              	.LFB29:
  17:MyWDT.c       ****         /* Map the WatchDog_ISR vector to the WDT_ISR */
 204              		.loc 1 17 0
 205              		.cfi_startproc
 206              		@ args = 0, pretend = 0, frame = 0
 207              		@ frame_needed = 0, uses_anonymous_args = 0
 208 0000 10B5     		push	{r4, lr}
 209              		.cfi_def_cfa_offset 8
 210              		.cfi_offset 4, -8
 211              		.cfi_offset 14, -4
  19:MyWDT.c       **** }
 212              		.loc 1 19 0
 213 0002 0248     		ldr	r0, .L12
 214 0004 FFF7FEFF 		bl	isr_WDT_StartEx
 215              	.LVL19:
  20:MyWDT.c       **** 
 216              		.loc 1 20 0
 217              		@ sp needed
 218 0008 10BD     		pop	{r4, pc}
 219              	.L13:
 220 000a C046     		.align	2
 221              	.L12:
 222 000c 00000000 		.word	WDT_ISR
 223              		.cfi_endproc
 224              	.LFE29:
 225              		.size	setAllWDTisr, .-setAllWDTisr
 226              		.section	.text.initWDT0,"ax",%progbits
 227              		.align	2
 228              		.global	initWDT0
 229              		.code	16
 230              		.thumb_func
 231              		.type	initWDT0, %function
 232              	initWDT0:
 233              	.LFB31:
  57:MyWDT.c       ****     /* Prepare COUNTER0 to use it by CySysTimerDelay function in
 234              		.loc 1 57 0
 235              		.cfi_startproc
 236              		@ args = 0, pretend = 0, frame = 0
 237              		@ frame_needed = 0, uses_anonymous_args = 0
 238 0000 10B5     		push	{r4, lr}
 239              		.cfi_def_cfa_offset 8
 240              		.cfi_offset 4, -8
 241              		.cfi_offset 14, -4
  62:MyWDT.c       ****     CySysWdtSetMode(CY_SYS_WDT_COUNTER0, CY_SYS_WDT_MODE_INT);
 242              		.loc 1 62 0
 243 0002 0021     		movs	r1, #0
 244 0004 0020     		movs	r0, #0
 245 0006 FFF7FEFF 		bl	CySysWdtSetClearOnMatch
 246              	.LVL20:
  63:MyWDT.c       ****     
 247              		.loc 1 63 0
 248 000a 0121     		movs	r1, #1
ARM GAS  C:\Users\ben\AppData\Local\Temp\ccmBE4Qn.s 			page 10


 249 000c 0020     		movs	r0, #0
 250 000e FFF7FEFF 		bl	CySysWdtSetMode
 251              	.LVL21:
  66:MyWDT.c       ****     
 252              		.loc 1 66 0
 253 0012 0120     		movs	r0, #1
 254 0014 FFF7FEFF 		bl	CySysWdtEnable
 255              	.LVL22:
  70:MyWDT.c       ****     
 256              		.loc 1 70 0
 257 0018 0020     		movs	r0, #0
 258 001a FFF7FEFF 		bl	CySysWdtDisableCounterIsr
 259              	.LVL23:
  73:MyWDT.c       ****     
 260              		.loc 1 73 0
 261 001e 0549     		ldr	r1, .L15
 262 0020 0020     		movs	r0, #0
 263 0022 FFF7FEFF 		bl	CySysWdtSetInterruptCallback
 264              	.LVL24:
  77:MyWDT.c       **** }
 265              		.loc 1 77 0
 266 0026 044A     		ldr	r2, .L15+4
 267 0028 0121     		movs	r1, #1
 268 002a 0020     		movs	r0, #0
 269 002c FFF7FEFF 		bl	CySysTimerDelay
 270              	.LVL25:
  78:MyWDT.c       **** 
 271              		.loc 1 78 0
 272              		@ sp needed
 273 0030 10BD     		pop	{r4, pc}
 274              	.L16:
 275 0032 C046     		.align	2
 276              	.L15:
 277 0034 00000000 		.word	EnableRtcWDT0Operation
 278 0038 FEFF0000 		.word	65534
 279              		.cfi_endproc
 280              	.LFE31:
 281              		.size	initWDT0, .-initWDT0
 282              		.section	.text.initWDT1,"ax",%progbits
 283              		.align	2
 284              		.global	initWDT1
 285              		.code	16
 286              		.thumb_func
 287              		.type	initWDT1, %function
 288              	initWDT1:
 289              	.LFB34:
 149:MyWDT.c       ****         /* Prepare COUNTER0 to use it by CySysTimerDelay function in
 290              		.loc 1 149 0
 291              		.cfi_startproc
 292              		@ args = 0, pretend = 0, frame = 0
 293              		@ frame_needed = 0, uses_anonymous_args = 0
 294 0000 10B5     		push	{r4, lr}
 295              		.cfi_def_cfa_offset 8
 296              		.cfi_offset 4, -8
 297              		.cfi_offset 14, -4
 154:MyWDT.c       ****     CySysWdtSetMode(CY_SYS_WDT_COUNTER1, CY_SYS_WDT_MODE_INT);
 298              		.loc 1 154 0
ARM GAS  C:\Users\ben\AppData\Local\Temp\ccmBE4Qn.s 			page 11


 299 0002 0021     		movs	r1, #0
 300 0004 0120     		movs	r0, #1
 301 0006 FFF7FEFF 		bl	CySysWdtSetClearOnMatch
 302              	.LVL26:
 155:MyWDT.c       ****     
 303              		.loc 1 155 0
 304 000a 0121     		movs	r1, #1
 305 000c 0120     		movs	r0, #1
 306 000e FFF7FEFF 		bl	CySysWdtSetMode
 307              	.LVL27:
 158:MyWDT.c       ****     
 308              		.loc 1 158 0
 309 0012 8020     		movs	r0, #128
 310 0014 4000     		lsls	r0, r0, #1
 311 0016 FFF7FEFF 		bl	CySysWdtEnable
 312              	.LVL28:
 162:MyWDT.c       ****     
 313              		.loc 1 162 0
 314 001a 0120     		movs	r0, #1
 315 001c FFF7FEFF 		bl	CySysWdtDisableCounterIsr
 316              	.LVL29:
 165:MyWDT.c       ****     
 317              		.loc 1 165 0
 318 0020 0449     		ldr	r1, .L18
 319 0022 0120     		movs	r0, #1
 320 0024 FFF7FEFF 		bl	CySysWdtSetInterruptCallback
 321              	.LVL30:
 169:MyWDT.c       **** }
 322              		.loc 1 169 0
 323 0028 034A     		ldr	r2, .L18+4
 324 002a 0121     		movs	r1, #1
 325 002c 0120     		movs	r0, #1
 326 002e FFF7FEFF 		bl	CySysTimerDelay
 327              	.LVL31:
 170:MyWDT.c       **** 
 328              		.loc 1 170 0
 329              		@ sp needed
 330 0032 10BD     		pop	{r4, pc}
 331              	.L19:
 332              		.align	2
 333              	.L18:
 334 0034 00000000 		.word	EnableRtcWDT0Operation
 335 0038 FEFF0000 		.word	65534
 336              		.cfi_endproc
 337              	.LFE34:
 338              		.size	initWDT1, .-initWDT1
 339              		.section	.text.EnableRtcWDT1Operation,"ax",%progbits
 340              		.align	2
 341              		.global	EnableRtcWDT1Operation
 342              		.code	16
 343              		.thumb_func
 344              		.type	EnableRtcWDT1Operation, %function
 345              	EnableRtcWDT1Operation:
 346              	.LFB35:
 187:MyWDT.c       ****     //DIO_0_3_Write(!(DIO_0_3_Read()));
 347              		.loc 1 187 0
 348              		.cfi_startproc
ARM GAS  C:\Users\ben\AppData\Local\Temp\ccmBE4Qn.s 			page 12


 349              		@ args = 0, pretend = 0, frame = 0
 350              		@ frame_needed = 0, uses_anonymous_args = 0
 351 0000 10B5     		push	{r4, lr}
 352              		.cfi_def_cfa_offset 8
 353              		.cfi_offset 4, -8
 354              		.cfi_offset 14, -4
 190:MyWDT.c       ****     
 355              		.loc 1 190 0
 356 0002 8020     		movs	r0, #128
 357 0004 C005     		lsls	r0, r0, #23
 358 0006 FFF7FEFF 		bl	CySysClkSetLfclkSource
 359              	.LVL32:
 193:MyWDT.c       ****     CySysWdtSetClearOnMatch(CY_SYS_WDT_COUNTER1, 1u);
 360              		.loc 1 193 0
 361 000a 8024     		movs	r4, #128
 362 000c 6400     		lsls	r4, r4, #1
 363 000e 2000     		movs	r0, r4
 364 0010 FFF7FEFF 		bl	CySysWdtDisable
 365              	.LVL33:
 194:MyWDT.c       ****     //^^^^^^^^^^^^Default^^^^^^^^^^^^^^^
 366              		.loc 1 194 0
 367 0014 0121     		movs	r1, #1
 368 0016 0120     		movs	r0, #1
 369 0018 FFF7FEFF 		bl	CySysWdtSetClearOnMatch
 370              	.LVL34:
 199:MyWDT.c       ****     
 371              		.loc 1 199 0
 372 001c 0749     		ldr	r1, .L21
 373 001e 0120     		movs	r0, #1
 374 0020 FFF7FEFF 		bl	CySysWdtSetMatch
 375              	.LVL35:
 201:MyWDT.c       ****     
 376              		.loc 1 201 0
 377 0024 2000     		movs	r0, r4
 378 0026 FFF7FEFF 		bl	CySysWdtEnable
 379              	.LVL36:
 204:MyWDT.c       ****     
 380              		.loc 1 204 0
 381 002a 0549     		ldr	r1, .L21+4
 382 002c 0120     		movs	r0, #1
 383 002e FFF7FEFF 		bl	CySysWdtSetInterruptCallback
 384              	.LVL37:
 207:MyWDT.c       ****     
 385              		.loc 1 207 0
 386 0032 0120     		movs	r0, #1
 387 0034 FFF7FEFF 		bl	CySysWdtEnableCounterIsr
 388              	.LVL38:
 211:MyWDT.c       **** 
 389              		.loc 1 211 0
 390              		@ sp needed
 391 0038 10BD     		pop	{r4, pc}
 392              	.L22:
 393 003a C046     		.align	2
 394              	.L21:
 395 003c FEFF0000 		.word	65534
 396 0040 00000000 		.word	UpdateTimeIsrWDT1Handler
 397              		.cfi_endproc
ARM GAS  C:\Users\ben\AppData\Local\Temp\ccmBE4Qn.s 			page 13


 398              	.LFE35:
 399              		.size	EnableRtcWDT1Operation, .-EnableRtcWDT1Operation
 400              		.section	.text.initWDT2,"ax",%progbits
 401              		.align	2
 402              		.global	initWDT2
 403              		.code	16
 404              		.thumb_func
 405              		.type	initWDT2, %function
 406              	initWDT2:
 407              	.LFB37:
 236:MyWDT.c       **** 
 237:MyWDT.c       **** void initWDT2(){
 408              		.loc 1 237 0
 409              		.cfi_startproc
 410              		@ args = 0, pretend = 0, frame = 0
 411              		@ frame_needed = 0, uses_anonymous_args = 0
 412              		@ link register save eliminated.
 238:MyWDT.c       ****     
 239:MyWDT.c       **** }
 413              		.loc 1 239 0
 414              		@ sp needed
 415 0000 7047     		bx	lr
 416              		.cfi_endproc
 417              	.LFE37:
 418              		.size	initWDT2, .-initWDT2
 419 0002 C046     		.section	.text.getALL_WDT_Values,"ax",%progbits
 420              		.align	2
 421              		.global	getALL_WDT_Values
 422              		.code	16
 423              		.thumb_func
 424              		.type	getALL_WDT_Values, %function
 425              	getALL_WDT_Values:
 426              	.LFB38:
 240:MyWDT.c       **** 
 241:MyWDT.c       **** 
 242:MyWDT.c       **** void getALL_WDT_Values(){
 427              		.loc 1 242 0
 428              		.cfi_startproc
 429              		@ args = 0, pretend = 0, frame = 64
 430              		@ frame_needed = 0, uses_anonymous_args = 0
 431 0000 10B5     		push	{r4, lr}
 432              		.cfi_def_cfa_offset 8
 433              		.cfi_offset 4, -8
 434              		.cfi_offset 14, -4
 435 0002 90B0     		sub	sp, sp, #64
 436              		.cfi_def_cfa_offset 72
 243:MyWDT.c       **** 
 244:MyWDT.c       ****     CyDelay(50u);
 437              		.loc 1 244 0
 438 0004 3220     		movs	r0, #50
 439 0006 FFF7FEFF 		bl	CyDelay
 440              	.LVL39:
 245:MyWDT.c       ****     char uartString2[0x40];
 246:MyWDT.c       ****     
 247:MyWDT.c       ****     int32 WcoEnabledValue;
 248:MyWDT.c       ****     int32 WdtGetCascadeValue;
 249:MyWDT.c       ****     int32 WdtGetToggleBitValue;
ARM GAS  C:\Users\ben\AppData\Local\Temp\ccmBE4Qn.s 			page 14


 250:MyWDT.c       ****     //cyWdtCallback WdtGetInterruptSourceValue;
 251:MyWDT.c       ****     //int32 Value;
 252:MyWDT.c       ****     
 253:MyWDT.c       ****     int32 WdtGetModeValue0;
 254:MyWDT.c       ****     int32 WdtGetModeValue1;
 255:MyWDT.c       ****     int32 WdtGetModeValue2;
 256:MyWDT.c       ****     
 257:MyWDT.c       ****     int32 WdtGetEnabledStatusValue0;
 258:MyWDT.c       ****     int32 WdtGetEnabledStatusValue1;
 259:MyWDT.c       ****     int32 WdtGetEnabledStatusValue2;
 260:MyWDT.c       ****     
 261:MyWDT.c       ****     int32 WdtGetClearOnMatchValue0;
 262:MyWDT.c       ****     int32 WdtGetClearOnMatchValue1;
 263:MyWDT.c       ****     int32 WdtGetClearOnMatchValue2;
 264:MyWDT.c       ****     
 265:MyWDT.c       ****     int32 WdtGetMatchValue0;
 266:MyWDT.c       ****     int32 WdtGetMatchValue1;
 267:MyWDT.c       ****     int32 WdtGetMatchValue2;
 268:MyWDT.c       **** 
 269:MyWDT.c       ****     int32 WdtGetCountValue0;
 270:MyWDT.c       ****     int32 WdtGetCountValue1;
 271:MyWDT.c       ****     int32 WdtGetCountValue2;    
 272:MyWDT.c       **** 
 273:MyWDT.c       ****     int32 WdtGetInterruptCallbackValue0;
 274:MyWDT.c       ****     int32 WdtGetInterruptCallbackValue1;
 275:MyWDT.c       ****     int32 WdtGetInterruptCallbackValue2;    
 276:MyWDT.c       ****     
 277:MyWDT.c       **** 
 278:MyWDT.c       ****     CyDelay(50u);
 441              		.loc 1 278 0
 442 000a 3220     		movs	r0, #50
 443 000c FFF7FEFF 		bl	CyDelay
 444              	.LVL40:
 279:MyWDT.c       ****     WcoEnabledValue = CySysClkWcoEnabled();
 445              		.loc 1 279 0
 446 0010 FFF7FEFF 		bl	CySysClkWcoEnabled
 447              	.LVL41:
 448 0014 0200     		movs	r2, r0
 449              	.LVL42:
 280:MyWDT.c       ****     sprintf(uartString2, "\r\n\r\nWcoEnabledValue:  %lu .", WcoEnabledValue);
 450              		.loc 1 280 0
 451 0016 7849     		ldr	r1, .L25
 452 0018 6846     		mov	r0, sp
 453              	.LVL43:
 454 001a FFF7FEFF 		bl	sprintf
 455              	.LVL44:
 281:MyWDT.c       ****     UART_PutString(uartString2);
 456              		.loc 1 281 0
 457 001e 6846     		mov	r0, sp
 458 0020 FFF7FEFF 		bl	UART_PutString
 459              	.LVL45:
 282:MyWDT.c       ****     CyDelay(50u);
 460              		.loc 1 282 0
 461 0024 3220     		movs	r0, #50
 462 0026 FFF7FEFF 		bl	CyDelay
 463              	.LVL46:
 283:MyWDT.c       ****     
ARM GAS  C:\Users\ben\AppData\Local\Temp\ccmBE4Qn.s 			page 15


 284:MyWDT.c       ****     WdtGetCascadeValue = CySysWdtGetCascade();
 464              		.loc 1 284 0
 465 002a FFF7FEFF 		bl	CySysWdtGetCascade
 466              	.LVL47:
 467 002e 0200     		movs	r2, r0
 468              	.LVL48:
 285:MyWDT.c       ****     sprintf(uartString2, "\r\nWdtGetCascadeValue:  %lu .", WdtGetCascadeValue);
 469              		.loc 1 285 0
 470 0030 7249     		ldr	r1, .L25+4
 471 0032 6846     		mov	r0, sp
 472              	.LVL49:
 473 0034 FFF7FEFF 		bl	sprintf
 474              	.LVL50:
 286:MyWDT.c       ****     UART_PutString(uartString2);
 475              		.loc 1 286 0
 476 0038 6846     		mov	r0, sp
 477 003a FFF7FEFF 		bl	UART_PutString
 478              	.LVL51:
 287:MyWDT.c       ****     CyDelay(50u);
 479              		.loc 1 287 0
 480 003e 3220     		movs	r0, #50
 481 0040 FFF7FEFF 		bl	CyDelay
 482              	.LVL52:
 288:MyWDT.c       ****     
 289:MyWDT.c       ****     WdtGetToggleBitValue = CySysWdtGetToggleBit();
 483              		.loc 1 289 0
 484 0044 FFF7FEFF 		bl	CySysWdtGetToggleBit
 485              	.LVL53:
 486 0048 0400     		movs	r4, r0
 487              	.LVL54:
 290:MyWDT.c       ****     //WdtGetInterruptSourceValue = CySysWdtGetInterruptSource();
 291:MyWDT.c       ****     CyDelay(50u);
 488              		.loc 1 291 0
 489 004a 3220     		movs	r0, #50
 490              	.LVL55:
 491 004c FFF7FEFF 		bl	CyDelay
 492              	.LVL56:
 292:MyWDT.c       **** 
 293:MyWDT.c       **** 
 294:MyWDT.c       ****     sprintf(uartString2, "\r\nWdtGetToggleBitValue:  %lu .\r\n", WdtGetToggleBitValue);
 493              		.loc 1 294 0
 494 0050 2200     		movs	r2, r4
 495 0052 6B49     		ldr	r1, .L25+8
 496 0054 6846     		mov	r0, sp
 497 0056 FFF7FEFF 		bl	sprintf
 498              	.LVL57:
 295:MyWDT.c       ****      UART_PutString(uartString2);
 499              		.loc 1 295 0
 500 005a 6846     		mov	r0, sp
 501 005c FFF7FEFF 		bl	UART_PutString
 502              	.LVL58:
 296:MyWDT.c       ****     CyDelay(50u);
 503              		.loc 1 296 0
 504 0060 3220     		movs	r0, #50
 505 0062 FFF7FEFF 		bl	CyDelay
 506              	.LVL59:
 297:MyWDT.c       ****     //WdtGetInterruptSourceValue:  %lu .");
ARM GAS  C:\Users\ben\AppData\Local\Temp\ccmBE4Qn.s 			page 16


 298:MyWDT.c       ****     
 299:MyWDT.c       ****     CyDelay(50u);
 507              		.loc 1 299 0
 508 0066 3220     		movs	r0, #50
 509 0068 FFF7FEFF 		bl	CyDelay
 510              	.LVL60:
 300:MyWDT.c       ****     WdtGetModeValue0 = CySysWdtGetMode(0);
 511              		.loc 1 300 0
 512 006c 0020     		movs	r0, #0
 513 006e FFF7FEFF 		bl	CySysWdtGetMode
 514              	.LVL61:
 515 0072 0200     		movs	r2, r0
 516              	.LVL62:
 301:MyWDT.c       ****     sprintf(uartString2, "\r\nWdtGetModeValue0:  %lu .", WdtGetModeValue0);
 517              		.loc 1 301 0
 518 0074 6349     		ldr	r1, .L25+12
 519 0076 6846     		mov	r0, sp
 520              	.LVL63:
 521 0078 FFF7FEFF 		bl	sprintf
 522              	.LVL64:
 302:MyWDT.c       ****     UART_PutString(uartString2);
 523              		.loc 1 302 0
 524 007c 6846     		mov	r0, sp
 525 007e FFF7FEFF 		bl	UART_PutString
 526              	.LVL65:
 303:MyWDT.c       ****     //CyDelay(50u);
 304:MyWDT.c       ****     
 305:MyWDT.c       ****     WdtGetEnabledStatusValue0 = CySysWdtGetEnabledStatus(0);
 527              		.loc 1 305 0
 528 0082 0020     		movs	r0, #0
 529 0084 FFF7FEFF 		bl	CySysWdtGetEnabledStatus
 530              	.LVL66:
 531 0088 0200     		movs	r2, r0
 532              	.LVL67:
 306:MyWDT.c       ****     sprintf(uartString2, "\r\nWdtGetEnabledStatusValue0:  %lu .", WdtGetEnabledStatusValue0);
 533              		.loc 1 306 0
 534 008a 5F49     		ldr	r1, .L25+16
 535 008c 6846     		mov	r0, sp
 536              	.LVL68:
 537 008e FFF7FEFF 		bl	sprintf
 538              	.LVL69:
 307:MyWDT.c       ****     UART_PutString(uartString2);
 539              		.loc 1 307 0
 540 0092 6846     		mov	r0, sp
 541 0094 FFF7FEFF 		bl	UART_PutString
 542              	.LVL70:
 308:MyWDT.c       ****     //CyDelay(50u);
 309:MyWDT.c       ****     
 310:MyWDT.c       ****     WdtGetClearOnMatchValue0 = CySysWdtGetClearOnMatch(0);
 543              		.loc 1 310 0
 544 0098 0020     		movs	r0, #0
 545 009a FFF7FEFF 		bl	CySysWdtGetClearOnMatch
 546              	.LVL71:
 547 009e 0200     		movs	r2, r0
 548              	.LVL72:
 311:MyWDT.c       ****     
 312:MyWDT.c       ****     sprintf(uartString2, "\r\nWdtGetClearOnMatchValue0:  %lu .", WdtGetClearOnMatchValue0);
ARM GAS  C:\Users\ben\AppData\Local\Temp\ccmBE4Qn.s 			page 17


 549              		.loc 1 312 0
 550 00a0 5A49     		ldr	r1, .L25+20
 551 00a2 6846     		mov	r0, sp
 552              	.LVL73:
 553 00a4 FFF7FEFF 		bl	sprintf
 554              	.LVL74:
 313:MyWDT.c       ****     UART_PutString(uartString2);
 555              		.loc 1 313 0
 556 00a8 6846     		mov	r0, sp
 557 00aa FFF7FEFF 		bl	UART_PutString
 558              	.LVL75:
 314:MyWDT.c       ****     //CyDelay(50u);
 315:MyWDT.c       ****     
 316:MyWDT.c       ****     WdtGetMatchValue0 = CySysWdtGetMatch(0);
 559              		.loc 1 316 0
 560 00ae 0020     		movs	r0, #0
 561 00b0 FFF7FEFF 		bl	CySysWdtGetMatch
 562              	.LVL76:
 563 00b4 0200     		movs	r2, r0
 564              	.LVL77:
 317:MyWDT.c       ****     sprintf(uartString2, "\r\nWdtGetMatchValue0:  %lu .", WdtGetMatchValue0);
 565              		.loc 1 317 0
 566 00b6 5649     		ldr	r1, .L25+24
 567 00b8 6846     		mov	r0, sp
 568              	.LVL78:
 569 00ba FFF7FEFF 		bl	sprintf
 570              	.LVL79:
 318:MyWDT.c       ****     UART_PutString(uartString2);
 571              		.loc 1 318 0
 572 00be 6846     		mov	r0, sp
 573 00c0 FFF7FEFF 		bl	UART_PutString
 574              	.LVL80:
 319:MyWDT.c       ****     //CyDelay(50u);
 320:MyWDT.c       ****     
 321:MyWDT.c       ****     WdtGetCountValue0 = CySysWdtGetCount(0);
 575              		.loc 1 321 0
 576 00c4 0020     		movs	r0, #0
 577 00c6 FFF7FEFF 		bl	CySysWdtGetCount
 578              	.LVL81:
 579 00ca 0200     		movs	r2, r0
 580              	.LVL82:
 322:MyWDT.c       ****     sprintf(uartString2, "\r\nWdtGetCountValue0:  %lu .", WdtGetCountValue0);
 581              		.loc 1 322 0
 582 00cc 5149     		ldr	r1, .L25+28
 583 00ce 6846     		mov	r0, sp
 584              	.LVL83:
 585 00d0 FFF7FEFF 		bl	sprintf
 586              	.LVL84:
 323:MyWDT.c       ****     UART_PutString(uartString2);
 587              		.loc 1 323 0
 588 00d4 6846     		mov	r0, sp
 589 00d6 FFF7FEFF 		bl	UART_PutString
 590              	.LVL85:
 324:MyWDT.c       ****     //CyDelay(50u);
 325:MyWDT.c       ****     
 326:MyWDT.c       ****     WdtGetInterruptCallbackValue0 = (uint32)CySysWdtGetInterruptCallback(0);
 591              		.loc 1 326 0
ARM GAS  C:\Users\ben\AppData\Local\Temp\ccmBE4Qn.s 			page 18


 592 00da 0020     		movs	r0, #0
 593 00dc FFF7FEFF 		bl	CySysWdtGetInterruptCallback
 594              	.LVL86:
 595 00e0 0400     		movs	r4, r0
 596              	.LVL87:
 327:MyWDT.c       ****     CyDelay(50u);
 597              		.loc 1 327 0
 598 00e2 3220     		movs	r0, #50
 599              	.LVL88:
 600 00e4 FFF7FEFF 		bl	CyDelay
 601              	.LVL89:
 328:MyWDT.c       ****     sprintf(uartString2, "\r\nWdtGetInterruptCallbackValue0:  %lu .\r\n", WdtGetInterruptCallbackVa
 602              		.loc 1 328 0
 603 00e8 2200     		movs	r2, r4
 604 00ea 4B49     		ldr	r1, .L25+32
 605 00ec 6846     		mov	r0, sp
 606 00ee FFF7FEFF 		bl	sprintf
 607              	.LVL90:
 329:MyWDT.c       ****      UART_PutString(uartString2);
 608              		.loc 1 329 0
 609 00f2 6846     		mov	r0, sp
 610 00f4 FFF7FEFF 		bl	UART_PutString
 611              	.LVL91:
 330:MyWDT.c       ****     //CyDelay(50u);
 331:MyWDT.c       **** 
 332:MyWDT.c       ****     WdtGetModeValue1 = CySysWdtGetMode(1);
 612              		.loc 1 332 0
 613 00f8 0120     		movs	r0, #1
 614 00fa FFF7FEFF 		bl	CySysWdtGetMode
 615              	.LVL92:
 616 00fe 0200     		movs	r2, r0
 617              	.LVL93:
 333:MyWDT.c       ****     sprintf(uartString2, "\r\nWdtGetModeValue1:  %lu .", WdtGetModeValue1);
 618              		.loc 1 333 0
 619 0100 4649     		ldr	r1, .L25+36
 620 0102 6846     		mov	r0, sp
 621              	.LVL94:
 622 0104 FFF7FEFF 		bl	sprintf
 623              	.LVL95:
 334:MyWDT.c       ****     UART_PutString(uartString2);
 624              		.loc 1 334 0
 625 0108 6846     		mov	r0, sp
 626 010a FFF7FEFF 		bl	UART_PutString
 627              	.LVL96:
 335:MyWDT.c       ****     //CyDelay(50u);
 336:MyWDT.c       ****     
 337:MyWDT.c       ****     WdtGetEnabledStatusValue1 = CySysWdtGetEnabledStatus(1);
 628              		.loc 1 337 0
 629 010e 0120     		movs	r0, #1
 630 0110 FFF7FEFF 		bl	CySysWdtGetEnabledStatus
 631              	.LVL97:
 632 0114 0200     		movs	r2, r0
 633              	.LVL98:
 338:MyWDT.c       ****     sprintf(uartString2, "\r\nWdtGetEnabledStatusValue1:  %lu .", WdtGetEnabledStatusValue1);
 634              		.loc 1 338 0
 635 0116 4249     		ldr	r1, .L25+40
 636 0118 6846     		mov	r0, sp
ARM GAS  C:\Users\ben\AppData\Local\Temp\ccmBE4Qn.s 			page 19


 637              	.LVL99:
 638 011a FFF7FEFF 		bl	sprintf
 639              	.LVL100:
 339:MyWDT.c       ****     UART_PutString(uartString2);
 640              		.loc 1 339 0
 641 011e 6846     		mov	r0, sp
 642 0120 FFF7FEFF 		bl	UART_PutString
 643              	.LVL101:
 340:MyWDT.c       ****     //CyDelay(50u);    
 341:MyWDT.c       ****     
 342:MyWDT.c       ****     WdtGetClearOnMatchValue1 = CySysWdtGetClearOnMatch(1);
 644              		.loc 1 342 0
 645 0124 0120     		movs	r0, #1
 646 0126 FFF7FEFF 		bl	CySysWdtGetClearOnMatch
 647              	.LVL102:
 648 012a 0200     		movs	r2, r0
 649              	.LVL103:
 343:MyWDT.c       ****     sprintf(uartString2, "\r\nWdtGetClearOnMatchValue1:  %lu .", WdtGetClearOnMatchValue1);
 650              		.loc 1 343 0
 651 012c 3D49     		ldr	r1, .L25+44
 652 012e 6846     		mov	r0, sp
 653              	.LVL104:
 654 0130 FFF7FEFF 		bl	sprintf
 655              	.LVL105:
 344:MyWDT.c       ****     UART_PutString(uartString2);
 656              		.loc 1 344 0
 657 0134 6846     		mov	r0, sp
 658 0136 FFF7FEFF 		bl	UART_PutString
 659              	.LVL106:
 345:MyWDT.c       ****     //CyDelay(50u);    
 346:MyWDT.c       ****     
 347:MyWDT.c       ****     WdtGetMatchValue1 = CySysWdtGetMatch(1);
 660              		.loc 1 347 0
 661 013a 0120     		movs	r0, #1
 662 013c FFF7FEFF 		bl	CySysWdtGetMatch
 663              	.LVL107:
 664 0140 0200     		movs	r2, r0
 665              	.LVL108:
 348:MyWDT.c       ****     sprintf(uartString2, "\r\nWdtGetMatchValue1:  %lu .", WdtGetMatchValue1);
 666              		.loc 1 348 0
 667 0142 3949     		ldr	r1, .L25+48
 668 0144 6846     		mov	r0, sp
 669              	.LVL109:
 670 0146 FFF7FEFF 		bl	sprintf
 671              	.LVL110:
 349:MyWDT.c       ****     UART_PutString(uartString2);
 672              		.loc 1 349 0
 673 014a 6846     		mov	r0, sp
 674 014c FFF7FEFF 		bl	UART_PutString
 675              	.LVL111:
 350:MyWDT.c       ****     //CyDelay(50u);    
 351:MyWDT.c       ****     
 352:MyWDT.c       ****     WdtGetCountValue1 = CySysWdtGetCount(1);
 676              		.loc 1 352 0
 677 0150 0120     		movs	r0, #1
 678 0152 FFF7FEFF 		bl	CySysWdtGetCount
 679              	.LVL112:
ARM GAS  C:\Users\ben\AppData\Local\Temp\ccmBE4Qn.s 			page 20


 680 0156 0200     		movs	r2, r0
 681              	.LVL113:
 353:MyWDT.c       ****     sprintf(uartString2, "\r\nWdtGetCountValue1:  %lu .", WdtGetCountValue1);
 682              		.loc 1 353 0
 683 0158 3449     		ldr	r1, .L25+52
 684 015a 6846     		mov	r0, sp
 685              	.LVL114:
 686 015c FFF7FEFF 		bl	sprintf
 687              	.LVL115:
 354:MyWDT.c       ****     UART_PutString(uartString2);
 688              		.loc 1 354 0
 689 0160 6846     		mov	r0, sp
 690 0162 FFF7FEFF 		bl	UART_PutString
 691              	.LVL116:
 355:MyWDT.c       ****     //CyDelay(50u);
 356:MyWDT.c       ****     
 357:MyWDT.c       ****     WdtGetInterruptCallbackValue1 = (uint32)CySysWdtGetInterruptCallback(1);
 692              		.loc 1 357 0
 693 0166 0120     		movs	r0, #1
 694 0168 FFF7FEFF 		bl	CySysWdtGetInterruptCallback
 695              	.LVL117:
 696 016c 0200     		movs	r2, r0
 697              	.LVL118:
 358:MyWDT.c       ****     sprintf(uartString2, "\r\nWdtGetInterruptCallbackValue1:  %lu .\r\n", WdtGetInterruptCallbackVa
 698              		.loc 1 358 0
 699 016e 3049     		ldr	r1, .L25+56
 700 0170 6846     		mov	r0, sp
 701              	.LVL119:
 702 0172 FFF7FEFF 		bl	sprintf
 703              	.LVL120:
 359:MyWDT.c       ****     UART_PutString(uartString2);
 704              		.loc 1 359 0
 705 0176 6846     		mov	r0, sp
 706 0178 FFF7FEFF 		bl	UART_PutString
 707              	.LVL121:
 360:MyWDT.c       ****     //CyDelay(50u);
 361:MyWDT.c       ****     CyDelay(50u);
 708              		.loc 1 361 0
 709 017c 3220     		movs	r0, #50
 710 017e FFF7FEFF 		bl	CyDelay
 711              	.LVL122:
 362:MyWDT.c       ****     
 363:MyWDT.c       ****     CySysWatchdogFeed(0);
 712              		.loc 1 363 0
 713 0182 0020     		movs	r0, #0
 714 0184 FFF7FEFF 		bl	CySysWatchdogFeed
 715              	.LVL123:
 364:MyWDT.c       ****     CySysWatchdogFeed(1);
 716              		.loc 1 364 0
 717 0188 0120     		movs	r0, #1
 718 018a FFF7FEFF 		bl	CySysWatchdogFeed
 719              	.LVL124:
 365:MyWDT.c       ****     CyDelay(50u);
 720              		.loc 1 365 0
 721 018e 3220     		movs	r0, #50
 722 0190 FFF7FEFF 		bl	CyDelay
 723              	.LVL125:
ARM GAS  C:\Users\ben\AppData\Local\Temp\ccmBE4Qn.s 			page 21


 366:MyWDT.c       **** 
 367:MyWDT.c       ****     WdtGetModeValue2 = CySysWdtGetMode(2);
 724              		.loc 1 367 0
 725 0194 0220     		movs	r0, #2
 726 0196 FFF7FEFF 		bl	CySysWdtGetMode
 727              	.LVL126:
 728 019a 0200     		movs	r2, r0
 729              	.LVL127:
 368:MyWDT.c       ****     sprintf(uartString2, "\r\nWdtGetModeValue2:  %lu .", WdtGetModeValue2);
 730              		.loc 1 368 0
 731 019c 2549     		ldr	r1, .L25+60
 732 019e 6846     		mov	r0, sp
 733              	.LVL128:
 734 01a0 FFF7FEFF 		bl	sprintf
 735              	.LVL129:
 369:MyWDT.c       ****     UART_PutString(uartString2);
 736              		.loc 1 369 0
 737 01a4 6846     		mov	r0, sp
 738 01a6 FFF7FEFF 		bl	UART_PutString
 739              	.LVL130:
 370:MyWDT.c       ****     //CyDelay(50u);
 371:MyWDT.c       ****     
 372:MyWDT.c       ****     WdtGetEnabledStatusValue2 = CySysWdtGetEnabledStatus(2);
 740              		.loc 1 372 0
 741 01aa 0220     		movs	r0, #2
 742 01ac FFF7FEFF 		bl	CySysWdtGetEnabledStatus
 743              	.LVL131:
 744 01b0 0200     		movs	r2, r0
 745              	.LVL132:
 373:MyWDT.c       ****     sprintf(uartString2, "\r\nWdtGetEnabledStatusValue2:  %lu .", WdtGetEnabledStatusValue2);
 746              		.loc 1 373 0
 747 01b2 2149     		ldr	r1, .L25+64
 748 01b4 6846     		mov	r0, sp
 749              	.LVL133:
 750 01b6 FFF7FEFF 		bl	sprintf
 751              	.LVL134:
 374:MyWDT.c       ****     UART_PutString(uartString2);
 752              		.loc 1 374 0
 753 01ba 6846     		mov	r0, sp
 754 01bc FFF7FEFF 		bl	UART_PutString
 755              	.LVL135:
 375:MyWDT.c       ****     //CyDelay(50u);
 376:MyWDT.c       ****     
 377:MyWDT.c       ****     /*
 378:MyWDT.c       ****     WdtGetClearOnMatchValue2 = CySysWdtGetClearOnMatch(2);
 379:MyWDT.c       ****     sprintf(uartString2, "\r\nWdtGetClearOnMatchValue2:  %lu .", WdtGetClearOnMatchValue2);
 380:MyWDT.c       ****      UART_PutString(uartString2);
 381:MyWDT.c       ****     CyDelay(50u);
 382:MyWDT.c       ****     
 383:MyWDT.c       ****     
 384:MyWDT.c       ****     WdtGetMatchValue2 = CySysWdtGetMatch(2);
 385:MyWDT.c       ****     sprintf(uartString2, "\r\nWdtGetMatchValue2:  %lu .", WdtGetMatchValue2);
 386:MyWDT.c       ****      UART_PutString(uartString2);
 387:MyWDT.c       ****     CyDelay(50u);
 388:MyWDT.c       ****     */
 389:MyWDT.c       ****     
 390:MyWDT.c       ****     WdtGetCountValue2 = CySysWdtGetCount(2);
ARM GAS  C:\Users\ben\AppData\Local\Temp\ccmBE4Qn.s 			page 22


 756              		.loc 1 390 0
 757 01c0 0220     		movs	r0, #2
 758 01c2 FFF7FEFF 		bl	CySysWdtGetCount
 759              	.LVL136:
 760 01c6 0200     		movs	r2, r0
 761              	.LVL137:
 391:MyWDT.c       ****     sprintf(uartString2, "\r\nWdtGetCountValue2:  %lu .", WdtGetCountValue2);
 762              		.loc 1 391 0
 763 01c8 1C49     		ldr	r1, .L25+68
 764 01ca 6846     		mov	r0, sp
 765              	.LVL138:
 766 01cc FFF7FEFF 		bl	sprintf
 767              	.LVL139:
 392:MyWDT.c       ****     UART_PutString(uartString2);
 768              		.loc 1 392 0
 769 01d0 6846     		mov	r0, sp
 770 01d2 FFF7FEFF 		bl	UART_PutString
 771              	.LVL140:
 393:MyWDT.c       ****     //CyDelay(50u);
 394:MyWDT.c       ****     
 395:MyWDT.c       ****     
 396:MyWDT.c       ****     WdtGetInterruptCallbackValue2 = (uint32)CySysWdtGetInterruptCallback(2);
 772              		.loc 1 396 0
 773 01d6 0220     		movs	r0, #2
 774 01d8 FFF7FEFF 		bl	CySysWdtGetInterruptCallback
 775              	.LVL141:
 776 01dc 0200     		movs	r2, r0
 777              	.LVL142:
 397:MyWDT.c       ****     sprintf(uartString2, "\r\nWdtGetInterruptCallbackValue2:  %lu .\r\n", WdtGetInterruptCallbackVa
 778              		.loc 1 397 0
 779 01de 1849     		ldr	r1, .L25+72
 780 01e0 6846     		mov	r0, sp
 781              	.LVL143:
 782 01e2 FFF7FEFF 		bl	sprintf
 783              	.LVL144:
 398:MyWDT.c       ****     UART_PutString(uartString2);
 784              		.loc 1 398 0
 785 01e6 6846     		mov	r0, sp
 786 01e8 FFF7FEFF 		bl	UART_PutString
 787              	.LVL145:
 399:MyWDT.c       ****     
 400:MyWDT.c       ****     CyDelay(50u);
 788              		.loc 1 400 0
 789 01ec 3220     		movs	r0, #50
 790 01ee FFF7FEFF 		bl	CyDelay
 791              	.LVL146:
 401:MyWDT.c       ****     
 402:MyWDT.c       **** }
 792              		.loc 1 402 0
 793 01f2 10B0     		add	sp, sp, #64
 794              		@ sp needed
 795              	.LVL147:
 796 01f4 10BD     		pop	{r4, pc}
 797              	.L26:
 798 01f6 C046     		.align	2
 799              	.L25:
 800 01f8 18000000 		.word	.LC7
ARM GAS  C:\Users\ben\AppData\Local\Temp\ccmBE4Qn.s 			page 23


 801 01fc 34000000 		.word	.LC9
 802 0200 54000000 		.word	.LC11
 803 0204 78000000 		.word	.LC13
 804 0208 94000000 		.word	.LC15
 805 020c B8000000 		.word	.LC17
 806 0210 DC000000 		.word	.LC19
 807 0214 F8000000 		.word	.LC21
 808 0218 14010000 		.word	.LC23
 809 021c 40010000 		.word	.LC25
 810 0220 5C010000 		.word	.LC27
 811 0224 80010000 		.word	.LC29
 812 0228 A4010000 		.word	.LC31
 813 022c C0010000 		.word	.LC33
 814 0230 DC010000 		.word	.LC35
 815 0234 08020000 		.word	.LC37
 816 0238 24020000 		.word	.LC39
 817 023c 48020000 		.word	.LC41
 818 0240 64020000 		.word	.LC43
 819              		.cfi_endproc
 820              	.LFE38:
 821              		.size	getALL_WDT_Values, .-getALL_WDT_Values
 822              		.comm	date,4,4
 823              		.comm	time,4,4
 824              		.comm	alarmTimeDate,16,4
 825              		.section	.rodata.str1.4,"aMS",%progbits,1
 826              		.align	2
 827              	.LC1:
 828 0000 0D0A7764 		.ascii	"\015\012wdtInterruptHandler\015\012\000"
 828      74496E74 
 828      65727275 
 828      70744861 
 828      6E646C65 
 829              	.LC7:
 830 0018 0D0A0D0A 		.ascii	"\015\012\015\012WcoEnabledValue:  %lu .\000"
 830      57636F45 
 830      6E61626C 
 830      65645661 
 830      6C75653A 
 831              	.LC9:
 832 0034 0D0A5764 		.ascii	"\015\012WdtGetCascadeValue:  %lu .\000"
 832      74476574 
 832      43617363 
 832      61646556 
 832      616C7565 
 833 0051 000000   		.space	3
 834              	.LC11:
 835 0054 0D0A5764 		.ascii	"\015\012WdtGetToggleBitValue:  %lu .\015\012\000"
 835      74476574 
 835      546F6767 
 835      6C654269 
 835      7456616C 
 836 0075 000000   		.space	3
 837              	.LC13:
 838 0078 0D0A5764 		.ascii	"\015\012WdtGetModeValue0:  %lu .\000"
 838      74476574 
 838      4D6F6465 
 838      56616C75 
ARM GAS  C:\Users\ben\AppData\Local\Temp\ccmBE4Qn.s 			page 24


 838      65303A20 
 839 0093 00       		.space	1
 840              	.LC15:
 841 0094 0D0A5764 		.ascii	"\015\012WdtGetEnabledStatusValue0:  %lu .\000"
 841      74476574 
 841      456E6162 
 841      6C656453 
 841      74617475 
 842              	.LC17:
 843 00b8 0D0A5764 		.ascii	"\015\012WdtGetClearOnMatchValue0:  %lu .\000"
 843      74476574 
 843      436C6561 
 843      724F6E4D 
 843      61746368 
 844 00db 00       		.space	1
 845              	.LC19:
 846 00dc 0D0A5764 		.ascii	"\015\012WdtGetMatchValue0:  %lu .\000"
 846      74476574 
 846      4D617463 
 846      6856616C 
 846      7565303A 
 847              	.LC21:
 848 00f8 0D0A5764 		.ascii	"\015\012WdtGetCountValue0:  %lu .\000"
 848      74476574 
 848      436F756E 
 848      7456616C 
 848      7565303A 
 849              	.LC23:
 850 0114 0D0A5764 		.ascii	"\015\012WdtGetInterruptCallbackValue0:  %lu .\015\012"
 850      74476574 
 850      496E7465 
 850      72727570 
 850      7443616C 
 851 013d 00       		.ascii	"\000"
 852 013e 0000     		.space	2
 853              	.LC25:
 854 0140 0D0A5764 		.ascii	"\015\012WdtGetModeValue1:  %lu .\000"
 854      74476574 
 854      4D6F6465 
 854      56616C75 
 854      65313A20 
 855 015b 00       		.space	1
 856              	.LC27:
 857 015c 0D0A5764 		.ascii	"\015\012WdtGetEnabledStatusValue1:  %lu .\000"
 857      74476574 
 857      456E6162 
 857      6C656453 
 857      74617475 
 858              	.LC29:
 859 0180 0D0A5764 		.ascii	"\015\012WdtGetClearOnMatchValue1:  %lu .\000"
 859      74476574 
 859      436C6561 
 859      724F6E4D 
 859      61746368 
 860 01a3 00       		.space	1
 861              	.LC31:
 862 01a4 0D0A5764 		.ascii	"\015\012WdtGetMatchValue1:  %lu .\000"
ARM GAS  C:\Users\ben\AppData\Local\Temp\ccmBE4Qn.s 			page 25


 862      74476574 
 862      4D617463 
 862      6856616C 
 862      7565313A 
 863              	.LC33:
 864 01c0 0D0A5764 		.ascii	"\015\012WdtGetCountValue1:  %lu .\000"
 864      74476574 
 864      436F756E 
 864      7456616C 
 864      7565313A 
 865              	.LC35:
 866 01dc 0D0A5764 		.ascii	"\015\012WdtGetInterruptCallbackValue1:  %lu .\015\012"
 866      74476574 
 866      496E7465 
 866      72727570 
 866      7443616C 
 867 0205 00       		.ascii	"\000"
 868 0206 0000     		.space	2
 869              	.LC37:
 870 0208 0D0A5764 		.ascii	"\015\012WdtGetModeValue2:  %lu .\000"
 870      74476574 
 870      4D6F6465 
 870      56616C75 
 870      65323A20 
 871 0223 00       		.space	1
 872              	.LC39:
 873 0224 0D0A5764 		.ascii	"\015\012WdtGetEnabledStatusValue2:  %lu .\000"
 873      74476574 
 873      456E6162 
 873      6C656453 
 873      74617475 
 874              	.LC41:
 875 0248 0D0A5764 		.ascii	"\015\012WdtGetCountValue2:  %lu .\000"
 875      74476574 
 875      436F756E 
 875      7456616C 
 875      7565323A 
 876              	.LC43:
 877 0264 0D0A5764 		.ascii	"\015\012WdtGetInterruptCallbackValue2:  %lu .\015\012"
 877      74476574 
 877      496E7465 
 877      72727570 
 877      7443616C 
 878 028d 00       		.ascii	"\000"
 879              		.text
 880              	.Letext0:
 881              		.file 2 "Generated_Source\\PSoC4/cytypes.h"
 882              		.file 3 "Generated_Source\\PSoC4/RTC.h"
 883              		.file 4 "MyTime.h"
 884              		.file 5 "Generated_Source\\PSoC4/DIO_0_3.h"
 885              		.file 6 "Generated_Source\\PSoC4/CyLFClk.h"
 886              		.file 7 "Generated_Source\\PSoC4/UART.h"
 887              		.file 8 "Generated_Source\\PSoC4/isr_WDT.h"
 888              		.file 9 "Generated_Source\\PSoC4/CyLib.h"
 889              		.file 10 "c:\\program files (x86)\\cypress\\psoc creator\\4.3\\psoc creator\\import\\gnu\\arm\\5.4